                ; SMALL-C VERSION 3.01  90/06/01  < FUTURE FORUM & S.KIYO > 
                ; MODIFY FOR 128KRAM (KZ80-1MSRAM)
                ; 
 0100 =         ITOP	EQU	0100H
 4000 =         FTOP	EQU	4000H
 5000 =         LTOP	EQU	5000H
 7000 =         VTOP	EQU	07000H
 7E00 =         STACK	EQU	07E00H
                ;
 7037 =         LBUF	EQU	VTOP+0037H
 0050 =         LBFSZ	EQU	80
 7087 =         MSTK	EQU	LBUF+LBFSZ
 70A5 =         TMSTK	EQU	MSTK+30
                ;
 003E =         PROMPT	EQU	'>'
 007F =         RUBOUT	EQU	7FH
 0008 =         BS	EQU	08H
 001B =         ESC	EQU	1BH
                ;
                TST	MACRO	STR,ADRS
                	CALL	TEST
                	DB	STR
                	DB	ADRS-$-1
                	ENDM
                CASE	MACRO	STR,ADRS
                	DB	STR
                	DB	(ADRS SHR 8)+80H
                	DB	ADRS AND 0FFH
                	ENDM
                ENDC	MACRO	ADRS
                	DB	(ADRS+8000H) SHR 8
                	DB	ADRS AND 0FFH
                	ENDM
                ;
 0000 =         UARTRD	EQU	00H
 0001 =         UARTRC	EQU	01H
                ;
                ;	BDOS VERSION 1.03
                ;
                ;
                ;	RESET
 0000           	ORG	0000H
 0000 C3D400    	JMP	SYSINI
                ;
                ;	BDOS
 0005           	ORG	0005H
                BDOS:
 0005 F5        	PUSH	PSW
 0006 79        	MOV	A,C
 0007 07        	RLC
 0008 81        	ADD	C
 0009 4F        	MOV	C,A
 000A F1        	POP	PSW
 000B 0600      	MVI	B,00H
 000D 211200    	LXI	H,JMPTBL
 0010 09        	DAD	B
 0011 E9        	PCHL
 0012 C3D400    JMPTBL:	JMP	SYSINI
 0015 C37C00    	JMP	RBUFRD
 0018 C3AB00    	JMP	USRTWT
 001B C37C00    	JMP	RBUFRD
 001E C3AB00    	JMP	USRTWT
 0021 C3AB00    	JMP	USRTWT
 0024 C3C000    	JMP	DCONIO
                ;
                ;	8251 -> A
                USRTRD:
 0027 DB01      	IN	UARTRC
 0029 E602      	ANI	00000010B
 002B CA2700    	JZ	USRTRD
 002E DB00      	IN	UARTRD
 0030 C9        	RET
                ;
                ;	RST7
 0038           	ORG	0038H
                INTRCV:
 0038 F3        	DI
 0039 F5        	PUSH	PSW
 003A C5        	PUSH	B
 003B D5        	PUSH	D
 003C E5        	PUSH	H
 003D CD2700    	CALL	USRTRD
 0040 FE11      	CPI	11H
 0042 CA4A00    	JZ	STRWT1
 0045 FE13      	CPI	13H
 0047 C25000    	JNZ	STRWT2
 004A 32037E    STRWT1:	STA	XFLAGS
 004D C37600    	JMP	RWTEXT
 0050 57        STRWT2:	MOV	D,A
 0051 3A007E    	LDA	RBFCNT
 0054 FEFF      	CPI	0FFH
 0056 CA7600    	JZ	RWTEXT
 0059 FEAF      	CPI	0FFH-80
 005B C26300    	JNZ	STRWT3
 005E 1E13      	MVI	E,13H
 0060 CDAB00    	CALL	USRTWT
 0063 3C        STRWT3:	INR	A
 0064 32007E    	STA	RBFCNT
 0067 3A027E    	LDA	RBFWTP
 006A 4F        	MOV	C,A
 006B 0600      	MVI	B,00H
 006D 21047E    	LXI	H,RECBUF
 0070 09        	DAD	B
 0071 72        	MOV	M,D
 0072 3C        	INR	A
 0073 32027E    	STA	RBFWTP
 0076 E1        RWTEXT:	POP	H
 0077 D1        	POP	D
 0078 C1        	POP	B
 0079 F1        	POP	PSW
 007A FB        	EI
 007B C9        	RET
                ;
                ;	BUFER -> A
                RBUFRD:
 007C C5        	PUSH	B
 007D D5        	PUSH	D
 007E E5        	PUSH	H
 007F 3A007E    LOPRBR:	LDA	RBFCNT
 0082 FE00      	CPI	00H
 0084 CA7F00    	JZ	LOPRBR
 0087 F3        	DI
 0088 FEAF      	CPI	0FFH-80
 008A C29200    	JNZ	STRRD1
 008D 1E11      	MVI	E,11H
 008F CDAB00    	CALL	USRTWT
 0092 3D        STRRD1:	DCR	A
 0093 32007E    	STA	RBFCNT
 0096 3A017E    	LDA	RBFRDP
 0099 4F        	MOV	C,A
 009A 0600      	MVI	B,00H
 009C 21047E    	LXI	H,RECBUF
 009F 09        	DAD	B
 00A0 56        	MOV	D,M
 00A1 3C        	INR	A
 00A2 32017E    	STA	RBFRDP
 00A5 7A        	MOV	A,D
 00A6 FB        	EI
 00A7 E1        	POP	H
 00A8 D1        	POP	D
 00A9 C1        	POP	B
 00AA C9        	RET
                ;
                ;	E -> 8251
                USRTWT:
 00AB F5        	PUSH	PSW
 00AC 3A037E    UWLOP1:	LDA	XFLAGS
 00AF FE13      	CPI	13H
 00B1 CAAC00    	JZ	UWLOP1
 00B4 DB01      UWLOP2:	IN	UARTRC
 00B6 E601      	ANI	00000001B
 00B8 CAB400    	JZ	UWLOP2
 00BB 7B        	MOV	A,E
 00BC D300      	OUT	UARTRD
 00BE F1        	POP	PSW
 00BF C9        	RET
                ;
                ;	DIRECT I/O
                DCONIO:
 00C0 F5        	PUSH	PSW
 00C1 7B        	MOV	A,E
 00C2 FEFF      	CPI	0FFH
 00C4 CACA00    	JZ	DCONIN
 00C7 C3B400    	JMP	UWLOP2
 00CA F1        DCONIN:	POP	PSW
 00CB 3A007E    	LDA	RBFCNT
 00CE FE00      	CPI	00H
 00D0 C8        	RZ
 00D1 C37C00    	JMP	RBUFRD
                ;
                ;	SYSTEM INITIALIZE
                SYSINI:
 00D4 31007E    	LXI	SP,STACK
                ;	DB	0EDH,056H
 00D7 3E11      	MVI	A,11H
 00D9 32037E    	STA	XFLAGS
 00DC 3E00      	MVI	A,00H
 00DE 32007E    	STA	RBFCNT
 00E1 32017E    	STA	RBFRDP
 00E4 32027E    	STA	RBFWTP
 00E7 D301      	OUT	UARTRC
 00E9 D301      	OUT	UARTRC
 00EB D301      	OUT	UARTRC
 00ED 3E40      	MVI	A,01000000B
 00EF D301      	OUT	UARTRC
 00F1 3E4E      	MVI	A,01001110B
 00F3 D301      	OUT	UARTRC
 00F5 3E37      	MVI	A,00110111B
 00F7 D301      	OUT	UARTRC
                ;
 00F9 FB        	EI
                ;
 00FA C30001    	JMP	ENTRY
                ;
 0100           	ORG	ITOP
                ENTRY:
                ;-- BANK MEM SET
 0100 3E01      	MVI	A,01H
 0102 D380      	OUT	80H
                ;
 0104 31007E    	LXI	SP,STACK
 0107 211450    	LXI	H,OTOP
 010A 220050    	SHLD	OBTM
 010D CDC408    	CALL	CRLF
 0110 118208    	LXI	D,OPNMS1
 0113 97        	SUB	A
 0114 CDB608    	CALL	MSG
 0117 119708    	LXI	D,OPNMS2
 011A 97        	SUB	A
 011B CDB608    	CALL	MSG
 011E 11A608    	LXI	D,OPNMS3
 0121 97        	SUB	A
 0122 CDB608    	CALL	MSG
                ;
                START:
 0125 CDC408    	CALL	CRLF
 0128 116E08    	LXI	D,OKMES
 012B 97        	SUB	A
 012C CDB608    	CALL	MSG
 012F 213601    	LXI	H,$+7
 0132 220250    	SHLD	CLABL
 0135 210000    	LXI	H,0000H
 0138 220850    	SHLD	FCNTR
 013B 220450    	SHLD	RSTCK
                ;
 013E 3E3E      EDITR:	MVI	A,PROMPT
 0140 CD9E01    	CALL	GETL
 0143 D5        	PUSH	D
 0144 113770    	LXI	D,LBUF
 0147 CDF007    	CALL	GINT
 014A CD6D02    	CALL	SKPBL
 014D 7C        	MOV	A,H
 014E B5        	ORA	L
 014F C1        	POP	B
 0150 CA2602    	JZ	KWCPR
 0153 1B        INSRT:	DCX	D
 0154 7C        	MOV	A,H
 0155 12        	STAX	D
 0156 1B        	DCX	D
 0157 7D        	MOV	A,L
 0158 12        	STAX	D
 0159 C5        	PUSH	B
 015A D5        	PUSH	D
 015B 79        	MOV	A,C
 015C 93        	SUB	E
 015D F5        	PUSH	PSW
 015E CDE201    	CALL	SRCH
 0161 D5        	PUSH	D
 0162 C27501    	JNZ	MOVE
 0165 D5        	PUSH	D
 0166 CD0002    	CALL	SKIPL
 0169 C1        	POP	B
 016A 2A0050    	LHLD	OBTM
 016D CD0C02    	CALL	TRNSF
 0170 60        	MOV	H,B
 0171 69        	MOV	L,C
 0172 220050    	SHLD	OBTM
 0175 C1        MOVE:	POP	B
 0176 2A0050    	LHLD	OBTM
 0179 F1        	POP	PSW
 017A E5        	PUSH	H
 017B FE03      	CPI	03H
 017D CA2501    	JZ	START
 0180 85        	ADD	L
 0181 6F        	MOV	L,A
 0182 3E00      	MVI	A,00H
 0184 8C        	ADC	H
 0185 67        	MOV	H,A
 0186 110070    	LXI	D,VTOP
 0189 CD5107    	CALL	COMPR
 018C D23F08    	JNC	ERSRY
 018F 220050    	SHLD	OBTM
 0192 D1        	POP	D
 0193 CD1702    	CALL	TR2
 0196 D1        	POP	D
 0197 E1        	POP	H
 0198 CD0C02    	CALL	TRNSF
 019B C33E01    	JMP	EDITR
                ;
 019E CDC608    GETL:	CALL	PUT
 01A1 113770    	LXI	D,LBUF
 01A4 CDE108    GETL1:	CALL	GET
 01A7 CAA401    	JZ	GETL1
 01AA FE0A      	CPI	0AH
 01AC CAA401    	JZ	GETL1
 01AF B7        	ORA	A
 01B0 CAA401    	JZ	GETL1
 01B3 FE08      	CPI	BS
 01B5 CACB01    	JZ	CRUB
 01B8 FE18      	CPI	'X'-'@'
 01BA CADA01    	JZ	CCAN
 01BD CDC608    	CALL	PUT
 01C0 12        	STAX	D
 01C1 13        	INX	D
 01C2 FE0D      	CPI	0DH
 01C4 C8        	RZ
 01C5 7B        	MOV	A,E
 01C6 FE87      	CPI	LBUFL + LBFSZ
 01C8 C2A401    	JNZ	GETL1
 01CB 7B        CRUB:	MOV	A,E
 01CC FE37      	CPI	LBUFL
 01CE CAA401    	JZ	GETL1
 01D1 1B        	DCX	D
 01D2 3E08      	MVI	A,BS
 01D4 CDC608    	CALL	PUT
 01D7 C3A401    	JMP	GETL1
 01DA CDC408    CCAN:	CALL	CRLF
 01DD 3E40      	MVI	A,'@'
 01DF C39E01    	JMP	GETL
 0037 =         LBUFL	EQU	LBUF AND 0FFH
                ;
 01E2 7C        SRCH:	MOV	A,H
 01E3 B7        	ORA	A
 01E4 FA3808    	JM	ERHOW
 01E7 111450    	LXI	D,OTOP
 01EA E5        SRCH1:	PUSH	H
 01EB 2A0050    	LHLD	OBTM
 01EE 2B        	DCX	H
 01EF CD5107    	CALL	COMPR
 01F2 E1        	POP	H
 01F3 D8        	RC
 01F4 1A        	LDAX	D
 01F5 95        	SUB	L
 01F6 47        	MOV	B,A
 01F7 13        	INX	D
 01F8 1A        	LDAX	D
 01F9 9C        	SBB	H
 01FA DA0102    	JC	SKPL1
 01FD 1B        	DCX	D
 01FE B0        	ORA	B
 01FF C9        	RET
                ;
 0200 13        SKIPL:	INX	D
 0201 13        SKPL1:	INX	D
 0202 1A        SKPL2:	LDAX	D
 0203 FE0D      	CPI	0DH
 0205 C20102    	JNZ	SKPL1
 0208 13        	INX	D
 0209 C3EA01    	JMP	SRCH1
                ;
 020C CD5107    TRNSF:	CALL	COMPR
 020F C8        	RZ
 0210 1A        	LDAX	D
 0211 02        	STAX	B
 0212 13        	INX	D
 0213 03        	INX	B
 0214 C30C02    	JMP	TRNSF
                ;
 0217 78        TR2:	MOV	A,B
 0218 92        	SUB	D
 0219 C21F02    	JNZ	TR2E
 021C 79        	MOV	A,C
 021D 93        	SUB	E
 021E C8        	RZ
 021F 1B        TR2E:	DCX	D
 0220 2B        	DCX	H
 0221 1A        	LDAX	D
 0222 77        	MOV	M,A
 0223 C31702    	JMP	TR2
                ;
 0226 217402    KWCPR:	LXI	H,CMDKW-1
                ;
 0229 CD6D02    NXTKW:	CALL	SKPBL
 022C D5        NXTK1:	PUSH	D
 022D 1A        KWC1:	LDAX	D
 022E 13        	INX	D
 022F FE2E      	CPI	'.'
 0231 CA4A02    	JZ	KWSRT
 0234 23        	INX	H
 0235 BE        	CMP	M
 0236 CA2D02    	JZ	KWC1
 0239 3E7F      	MVI	A,7FH
 023B 1B        	DCX	D
 023C BE        	CMP	M
 023D DA5102    	JC	EXEQT
 0240 23        KWSK1:	INX	H
 0241 BE        	CMP	M
 0242 D24002    	JNC	KWSK1
 0245 23        	INX	H
 0246 D1        	POP	D
 0247 C32C02    	JMP	NXTK1
                ;
 024A 3E7F      KWSRT:	MVI	A,7FH
 024C 23        KWSK2:	INX	H
 024D BE        	CMP	M
 024E D24C02    	JNC	KWSK2
                ;
 0251 7E        EXEQT:	MOV	A,M
 0252 23        	INX	H
 0253 6E        	MOV	L,M
 0254 E67F      	ANI	7FH
 0256 67        	MOV	H,A
 0257 F1        	POP	PSW
 0258 E9        	PCHL
                ;
 0259 E3        TEST:	XTHL
 025A CD6D02    	CALL	SKPBL
 025D BE        	CMP	M
 025E 23        	INX	H
 025F CA6902    	JZ	TSTEQ
 0262 C5        	PUSH	B
 0263 4E        	MOV	C,M
 0264 0600      	MVI	B,00H
 0266 09        	DAD	B
 0267 C1        	POP	B
 0268 1B        	DCX	D
 0269 13        TSTEQ:	INX	D
 026A 23        	INX	H
 026B E3        	XTHL
 026C C9        	RET
                ;
 026D 1A        SKPBL:	LDAX	D
 026E FE20      	CPI	' '
 0270 C0        	RNZ
 0271 13        	INX	D
 0272 C36D02    	JMP	SKPBL
                ;
                CMDKW:	CASE	'LIST',LIST
 0275+4C495354  	DB	'LIST'
 0279+84        	DB	(LIST SHR 8)+80H
 027A+66        	DB	LIST AND 0FFH
                	CASE	'RUN',RUN
 027B+52554E    	DB	'RUN'
 027E+85        	DB	(RUN SHR 8)+80H
 027F+E3        	DB	RUN AND 0FFH
                	CASE	'NEW',NEW
 0280+4E4557    	DB	'NEW'
 0283+82        	DB	(NEW SHR 8)+80H
 0284+F4        	DB	NEW AND 0FFH
                	CASE	'SYSTEM',SSYSTEM
 0285+5359535445	DB	'SYSTEM'
 028B+83        	DB	(SSYSTEM SHR 8)+80H
 028C+03        	DB	SSYSTEM AND 0FFH
                	CASE	'MON',MON
 028D+4D4F4E    	DB	'MON'
 0290+82        	DB	(MON SHR 8)+80H
 0291+DC        	DB	MON AND 0FFH
                STMKW:	CASE	'NEXT',NEXT
 0292+4E455854  	DB	'NEXT'
 0296+83        	DB	(NEXT SHR 8)+80H
 0297+B8        	DB	NEXT AND 0FFH
                	CASE	'LET',LET
 0298+4C4554    	DB	'LET'
 029B+85        	DB	(LET SHR 8)+80H
 029C+B1        	DB	LET AND 0FFH
                	CASE	'INPUT',INPUT
 029D+494E505554	DB	'INPUT'
 02A2+85        	DB	(INPUT SHR 8)+80H
 02A3+55        	DB	INPUT AND 0FFH
                	CASE	'IF',IFSTM
 02A4+4946      	DB	'IF'
 02A6+84        	DB	(IFSTM SHR 8)+80H
 02A7+52        	DB	IFSTM AND 0FFH
                	CASE	'GOTO',GOTO
 02A8+474F544F  	DB	'GOTO'
 02AC+85        	DB	(GOTO SHR 8)+80H
 02AD+D2        	DB	GOTO AND 0FFH
                	CASE	'GOSUB',GOSUB
 02AE+474F535542	DB	'GOSUB'
 02B3+83        	DB	(GOSUB SHR 8)+80H
 02B4+08        	DB	GOSUB AND 0FFH
                	CASE	'RETURN',RETRN
 02B5+5245545552	DB	'RETURN'
 02BB+83        	DB	(RETRN SHR 8)+80H
 02BC+2A        	DB	RETRN AND 0FFH
                	CASE	'REM',REM
 02BD+52454D    	DB	'REM'
 02C0+84        	DB	(REM SHR 8)+80H
 02C1+5A        	DB	REM AND 0FFH
                	CASE	'FOR',FOR
 02C2+464F52    	DB	'FOR'
 02C5+83        	DB	(FOR SHR 8)+80H
 02C6+45        	DB	FOR AND 0FFH
                	CASE	'PRINT',PRINT
 02C7+5052494E54	DB	'PRINT'
 02CC+84        	DB	(PRINT SHR 8)+80H
 02CD+93        	DB	PRINT AND 0FFH
                	CASE	'STOP',STOP
 02CE+53544F50  	DB	'STOP'
 02D2+82        	DB	(STOP SHR 8)+80H
 02D3+FD        	DB	STOP AND 0FFH
                	CASE	'EXEC',SEXEC
 02D4+45584543  	DB	'EXEC'
 02D8+82        	DB	(SEXEC SHR 8)+80H
 02D9+DF        	DB	SEXEC AND 0FFH
                	ENDC	LETDF
 02DA+85        	DB	(LETDF+8000H) SHR 8
 02DB+A9        	DB	LETDF AND 0FFH
                ;
 02DC C30409    MON:	JMP	MAIN
                ;
                SEXEC:
 02DF CD2406    	CALL	EEXPR
 02E2 F5        	PUSH	PSW
 02E3 C5        	PUSH	B
 02E4 D5        	PUSH	D
 02E5 11EE02    	LXI	D,EXRET
 02E8 D5        	PUSH	D
 02E9 110040    	LXI	D,FTOP
 02EC 19        	DAD	D
 02ED E9        	PCHL
 02EE D1        EXRET:	POP	D
 02EF C1        	POP	B
 02F0 F1        	POP	PSW
 02F1 C30206    	JMP	ENDL
                ;
 02F4 CD1B06    NEW:	CALL	TSCR2
 02F7 211450    	LXI	H,OTOP
 02FA 220050    	SHLD	OBTM
 02FD CD1B06    STOP:	CALL	TSCR2
 0300 C32501    	JMP	START
                SSYSTEM:
 0303 0E00      	MVI	C,0
 0305 CD0500    	CALL	0005H
                ;
 0308 CD0D04    GOSUB:	CALL	PSHV
 030B CD2406    	CALL	EEXPR
 030E D5        	PUSH	D
 030F CDE201    	CALL	SRCH
 0312 C23908    	JNZ	ERHW1
 0315 2A0250    	LHLD	CLABL
 0318 E5        	PUSH	H
 0319 2A0450    	LHLD	RSTCK
 031C E5        	PUSH	H
 031D 210000    	LXI	H,0000H
 0320 220850    	SHLD	FCNTR
 0323 39        	DAD	SP
 0324 220450    	SHLD	RSTCK
 0327 C3F205    	JMP	RUN2
                ;
 032A CD1B06    RETRN:	CALL	TSCR2
 032D 2A0450    	LHLD	RSTCK
 0330 7C        	MOV	A,H
 0331 B5        	ORA	L
 0332 CA3108    	JZ	ERWHT
 0335 F9        	SPHL
 0336 E1        	POP	H
 0337 220450    	SHLD	RSTCK
 033A E1        	POP	H
 033B 220250    	SHLD	CLABL
 033E D1        	POP	D
 033F CD3604    	CALL	POPV
 0342 C30206    	JMP	ENDL
                ;
 0345 CD0D04    FOR:	CALL	PSHV
 0348 CDBC05    	CALL	LTSUB
 034B 2B        	DCX	H
 034C 220850    	SHLD	FCNTR
 034F 215403    	LXI	H,KWTO-1
 0352 C32902    	JMP	NXTKW
                KWTO:	CASE	'TO',FORTO
 0355+544F      	DB	'TO'
 0357+83        	DB	(FORTO SHR 8)+80H
 0358+5B        	DB	FORTO AND 0FFH
                	ENDC	ERWHT
 0359+88        	DB	(ERWHT+8000H) SHR 8
 035A+31        	DB	ERWHT AND 0FFH
                ;
 035B CD2406    FORTO:	CALL	EEXPR
 035E 220C50    	SHLD	FTOV
 0361 216603    	LXI	H,KWSTP-1
 0364 C32902    	JMP	NXTKW
                KWSTP:	CASE	'STEP',FSTEP
 0367+53544550  	DB	'STEP'
 036B+83        	DB	(FSTEP SHR 8)+80H
 036C+6F        	DB	FSTEP AND 0FFH
                	ENDC	FSTP1
 036D+83        	DB	(FSTP1+8000H) SHR 8
 036E+75        	DB	FSTP1 AND 0FFH
                ;
 036F CD2406    FSTEP:	CALL	EEXPR
 0372 C37803    	JMP	FOR0
 0375 210100    FSTP1:	LXI	H,0001H
 0378 220A50    FOR0:	SHLD	FSTPV
 037B 2A0250    	LHLD	CLABL
 037E 220E50    	SHLD	FLABL
 0381 EB        	XCHG
 0382 221050    	SHLD	FOBJ
 0385 010A00    	LXI	B,000AH
 0388 2A0850    	LHLD	FCNTR
 038B EB        	XCHG
 038C 60        	MOV	H,B
 038D 68        	MOV	L,B
 038E 39        	DAD	SP
 038F 3E        	DB	3EH
 0390 09        FOR3:	DAD	B
 0391 7E        	MOV	A,M
 0392 23        	INX	H
 0393 B6        	ORA	M
 0394 CAB103    	JZ	FOR10
 0397 7E        	MOV	A,M
 0398 2B        	DCX	H
 0399 BA        	CMP	D
 039A C29003    	JNZ	FOR3
 039D 7E        	MOV	A,M
 039E BB        	CMP	E
 039F C29003    	JNZ	FOR3
 03A2 EB        FOR5:	XCHG
 03A3 210000    	LXI	H,0000H
 03A6 39        	DAD	SP
 03A7 44        	MOV	B,H
 03A8 4D        	MOV	C,L
 03A9 210A00    	LXI	H,000AH
 03AC 19        	DAD	D
 03AD CD1702    	CALL	TR2
 03B0 F9        	SPHL
 03B1 2A1050    FOR10:	LHLD	FOBJ
 03B4 EB        	XCHG
 03B5 C30206    	JMP	ENDL
                ;
 03B8 CDBC07    NEXT:	CALL	TSTV
 03BB DA3108    	JC	ERWHT
 03BE 220650    	SHLD	NCNTR
 03C1 D5        NEXT1:	PUSH	D
 03C2 EB        	XCHG
 03C3 2A0850    	LHLD	FCNTR
 03C6 7C        	MOV	A,H
 03C7 B5        	ORA	L
 03C8 CA3208    	JZ	ERWT1
 03CB CD5107    	CALL	COMPR
 03CE CADB03    	JZ	NEXT2
 03D1 D1        	POP	D
 03D2 CD3604    	CALL	POPV
 03D5 2A0650    	LHLD	NCNTR
 03D8 C3C103    	JMP	NEXT1
 03DB 5E        NEXT2:	MOV	E,M
 03DC 23        	INX	H
 03DD 56        	MOV	D,M
 03DE 2A0A50    	LHLD	FSTPV
 03E1 E5        	PUSH	H
 03E2 19        	DAD	D
 03E3 EB        	XCHG
 03E4 2A0850    	LHLD	FCNTR
 03E7 73        	MOV	M,E
 03E8 23        	INX	H
 03E9 72        	MOV	M,D
 03EA 2A0C50    	LHLD	FTOV
 03ED F1        	POP	PSW
 03EE B7        	ORA	A
 03EF F2F303    	JP	NEXT4
 03F2 EB        	XCHG
 03F3 CD4B07    NEXT4:	CALL	CMINT
 03F6 D1        	POP	D
 03F7 DA0704    	JC	NEXT5
 03FA 2A0E50    	LHLD	FLABL
 03FD 220250    	SHLD	CLABL
 0400 2A1050    	LHLD	FOBJ
 0403 EB        	XCHG
 0404 C30206    	JMP	ENDL
 0407 CD3604    NEXT5:	CALL	POPV
 040A C30206    	JMP	ENDL
                ;
 040D 21A570    PSHV:	LXI	H,TMSTK
 0410 CD3F07    	CALL	TWSCP
 0413 C1        	POP	B
 0414 39        	DAD	SP
 0415 D23F08    	JNC	ERSRY
 0418 2A0850    	LHLD	FCNTR
 041B 7C        	MOV	A,H
 041C B5        	ORA	L
 041D CA3304    	JZ	NPSH
 0420 2A1050    	LHLD	FOBJ
 0423 E5        	PUSH	H
 0424 2A0E50    	LHLD	FLABL
 0427 E5        	PUSH	H
 0428 2A0C50    	LHLD	FTOV
 042B E5        	PUSH	H
 042C 2A0A50    	LHLD	FSTPV
 042F E5        	PUSH	H
 0430 2A0850    	LHLD	FCNTR
 0433 E5        NPSH:	PUSH	H
 0434 C5        	PUSH	B
 0435 C9        	RET
                ;
 0436 C1        POPV:	POP	B
 0437 E1        	POP	H
 0438 220850    	SHLD	FCNTR
 043B 7C        	MOV	A,H 
 043C B5        	ORA	L
 043D CA5004    	JZ	NPOP
 0440 E1        	POP	H
 0441 220A50    	SHLD	FSTPV
 0444 E1        	POP	H
 0445 220C50    	SHLD	FTOV
 0448 E1        	POP	H
 0449 220E50    	SHLD	FLABL
 044C E1        	POP	H
 044D 221050    	SHLD	FOBJ
 0450 C5        NPOP:	PUSH	B
 0451 C9        	RET
                ;
 0452 CD2406    IFSTM:	CALL	EEXPR
 0455 7C        	MOV	A,H
 0456 B5        	ORA	L
 0457 C2F905    	JNZ	NXTGO
 045A 210000    REM:	LXI	H,0000H
 045D CD0202    	CALL	SKPL2
 0460 D2F205    	JNC	RUN2
 0463 C32501    	JMP	START
                ;
 0466 CDF007    LIST:	CALL	GINT
 0469 CD1B06    	CALL	TSCR2
 046C CDE201    	CALL	SRCH
 046F DA2501    LISTL:	JC	START
 0472 CD7E04    	CALL	WLINE
 0475 CDE108    	CALL	BREAK
 0478 CDEA01    	CALL	SRCH1
 047B C36F04    	JMP	LISTL
                ;
 047E 1A        WLINE:	LDAX	D
 047F 6F        	MOV	L,A
 0480 13        	INX	D
 0481 1A        	LDAX	D
 0482 67        	MOV	H,A
 0483 13        	INX	D
 0484 0E04      	MVI	C,04H
 0486 CD0905    	CALL	WINT
 0489 3E20      	MVI	A,' '
 048B CDC608    	CALL	PUT
 048E 97        	SUB	A
 048F CDB608    	CALL	MSG
 0492 C9        	RET
                ;
 0493 0E06      PRINT:	MVI	C,6
                PRSC:	TST	';',PRCR
 0495+CD5902    	CALL	TEST
 0498+3B        	DB	';'
 0499+06        	DB	PRCR-$-1
 049A CDC408    	CALL	CRLF
 049D C3F905    	JMP	NXTGO
                PRCR:	TST	0DH,PRSHA
 04A0+CD5902    	CALL	TEST
 04A3+0D        	DB	0DH
 04A4+06        	DB	PRSHA-$-1
 04A5 CDC408    	CALL	CRLF
 04A8 C3E905    	JMP	RUN1
                PRSHA:	TST	'#',PRLTR
 04AB+CD5902    	CALL	TEST
 04AE+23        	DB	'#'
 04AF+07        	DB	PRLTR-$-1
 04B0 CD2406    	CALL	EEXPR
 04B3 4D        	MOV	C,L
 04B4 C3BD04    	JMP	PRCMA
 04B7 CDD904    PRLTR:	CALL	PRSUB
 04BA C3CE04    	JMP	PREXP
                PRCMA:	TST	',',PREND
 04BD+CD5902    	CALL	TEST
 04C0+2C        	DB	','
 04C1+06        	DB	PREND-$-1
 04C2 CD0806    	CALL	TSTSC
 04C5 C3AB04    	JMP	PRSHA
 04C8 CDC408    PREND:	CALL	CRLF
 04CB C30206    	JMP	ENDL
 04CE CD2406    PREXP:	CALL	EEXPR
 04D1 C5        	PUSH	B
 04D2 CD0905    	CALL	WINT
 04D5 C1        	POP	B
 04D6 C3BD04    	JMP	PRCMA
                ;
                PRSUB:	TST	'"',PR13
 04D9+CD5902    	CALL	TEST
 04DC+22        	DB	'"'
 04DD+05        	DB	PR13-$-1
 04DE 3E22      	MVI	A,'"'
 04E0 C3EA04    	JMP	PR11
                PR13:	TST	'''''',PR14
 04E3+CD5902    	CALL	TEST
 04E6+27        	DB	''''
 04E7+0E        	DB	PR14-$-1
 04E8 3E27      	MVI	A,''''
 04EA CDB608    PR11:	CALL	MSG
 04ED FE0D      	CPI	0DH
 04EF E1        	POP	H
 04F0 CAE905    	JZ	RUN1
 04F3 C30405    	JMP	PR12
                PR14:	TST	'_',PR15
 04F6+CD5902    	CALL	TEST
 04F9+5F        	DB	'_'
 04FA+0D        	DB	PR15-$-1
 04FB 3E8D      	MVI	A,80H+0DH
 04FD CDC608    	CALL	PUT
 0500 CDC608    	CALL	PUT
 0503 E1        	POP	H
 0504 23        PR12:	INX	H
 0505 23        	INX	H
 0506 23        	INX	H
 0507 E9        	PCHL
 0508 C9        PR15:	RET
                ;
 0509 D5        WINT:	PUSH	D
 050A 110A00    	LXI	D,000AH
 050D D5        	PUSH	D
 050E 42        	MOV	B,D
 050F 0D        	DCR	C
 0510 CD3C07    	CALL	ABS
 0513 F21905    	JP	WINT1
 0516 062D      	MVI	B,'-'
 0518 0D        	DCR	C
 0519 C5        WINT1:	PUSH	B
 051A CD1F07    WINT2:	CALL	DIVID
 051D 78        	MOV	A,B
 051E B1        	ORA	C
 051F CA2A05    	JZ	WINT3
 0522 E3        	XTHL
 0523 2D        	DCR	L
 0524 E5        	PUSH	H
 0525 60        	MOV	H,B
 0526 69        	MOV	L,C
 0527 C31A05    	JMP	WINT2
 052A C1        WINT3:	POP	B
 052B 0D        WINT4:	DCR	C
 052C 79        	MOV	A,C
 052D B7        	ORA	A
 052E FA3905    	JM	WINT5
 0531 3E20      	MVI	A,' '
 0533 CDC608    	CALL	PUT
 0536 C32B05    	JMP	WINT4
 0539 78        WINT5:	MOV	A,B
 053A CDC608    	CALL	PUT
 053D 5D        	MOV	E,L
 053E 7B        WINT6:	MOV	A,E
 053F FE0A      	CPI	0AH
 0541 D1        	POP	D
 0542 C8        	RZ
 0543 C630      	ADI	30H
 0545 CDC608    	CALL	PUT
 0548 C33E05    	JMP	WINT6
                ;
 054B 2A0650    ERRIN:	LHLD	NCNTR
 054E F9        	SPHL
 054F E1        	POP	H
 0550 220250    	SHLD	CLABL
 0553 D1        	POP	D
 0554 D1        	POP	D
 0555 D5        INPUT:	PUSH	D
 0556 CDD904    	CALL	PRSUB
 0559 C36505    	JMP	INPT2
 055C CDBC07    INPT1:	CALL	TSTV
 055F DAA005    	JC	INPT6
 0562 C37705    	JMP	INPT4
 0565 D5        INPT2:	PUSH	D
 0566 CDBC07    	CALL	TSTV
 0569 DA3108    	JC	ERWHT
 056C 1A        	LDAX	D
 056D 4F        	MOV	C,A
 056E 97        	SUB	A
 056F 12        	STAX	D
 0570 D1        	POP	D
 0571 CDB608    	CALL	MSG
 0574 79        	MOV	A,C
 0575 1B        	DCX	D
 0576 12        	STAX	D
 0577 D5        INPT4:	PUSH	D
 0578 EB        	XCHG
 0579 2A0250    	LHLD	CLABL
 057C E5        	PUSH	H
 057D 215505    	LXI	H,INPUT
 0580 220250    	SHLD	CLABL
 0583 210000    	LXI	H,0000H
 0586 39        	DAD	SP
 0587 220650    	SHLD	NCNTR
 058A D5        	PUSH	D
 058B 3E3A      	MVI	A,':'
 058D CD9E01    	CALL	GETL
 0590 113770    	LXI	D,LBUF
 0593 CD2406    	CALL	EEXPR
 0596 D1        	POP	D
 0597 EB        	XCHG
 0598 73        	MOV	M,E
 0599 23        	INX	H
 059A 72        	MOV	M,D
 059B E1        	POP	H
 059C 220250    	SHLD	CLABL
 059F D1        	POP	D
 05A0 F1        INPT6:	POP	PSW
                	TST	',',ENDL
 05A1+CD5902    	CALL	TEST
 05A4+2C        	DB	','
 05A5+5C        	DB	ENDL-$-1
 05A6 C35505    	JMP	INPUT
                ;
 05A9 CD1106    LETDF:	CALL	TSCR1
 05AC FE0D      	CPI	0DH
 05AE CA0206    	JZ	ENDL
 05B1 CDBC05    LET:	CALL	LTSUB
                	TST	',',ENDL
 05B4+CD5902    	CALL	TEST
 05B7+2C        	DB	','
 05B8+49        	DB	ENDL-$-1
 05B9 C3B105    	JMP	LET
                ;
 05BC CDBC07    LTSUB:	CALL	TSTV
 05BF DA3108    	JC	ERWHT
 05C2 E5        	PUSH	H
                	TST	'=',LERR
 05C3+CD5902    	CALL	TEST
 05C6+3D        	DB	'='
 05C7+3D        	DB	LERR-$-1
 05C8 CD2406    	CALL	EEXPR
 05CB 44        	MOV	B,H
 05CC 4D        	MOV	C,L
 05CD E1        	POP	H
 05CE 71        	MOV	M,C
 05CF 23        	INX	H
 05D0 70        	MOV	M,B
 05D1 C9        	RET
                ;
 05D2 CD2406    GOTO:	CALL	EEXPR
 05D5 D5        	PUSH	D
 05D6 CD1B06    	CALL	TSCR2
 05D9 CDE201    	CALL	SRCH
 05DC C23908    	JNZ	ERHW1
 05DF F1        	POP	PSW
 05E0 C3F205    	JMP	RUN2
                ;
 05E3 CD1B06    RUN:	CALL	TSCR2
 05E6 111450    	LXI	D,OTOP
 05E9 210000    RUN1:	LXI	H,0000H
 05EC CDEA01    	CALL	SRCH1
 05EF DA2501    	JC	START
 05F2 EB        RUN2:	XCHG
 05F3 220250    	SHLD	CLABL
 05F6 EB        	XCHG
 05F7 13        	INX	D
 05F8 13        	INX	D
 05F9 CDE108    NXTGO:	CALL	BREAK
 05FC 219102    	LXI	H,STMKW-1
 05FF C32902    	JMP	NXTKW
                ;
 0602 CD0806    ENDL:	CALL	TSTSC
 0605 C33108    LERR:	JMP	ERWHT
                ;
                TSTSC:	TST	';',TSCR1
 0608+CD5902    	CALL	TEST
 060B+3B        	DB	';'
 060C+04        	DB	TSCR1-$-1
 060D F1        	POP	PSW
 060E C3F905    	JMP	NXTGO
                ;
                TSCR1:	TST	0DH,TSRTN
 0611+CD5902    	CALL	TEST
 0614+0D        	DB	0DH
 0615+04        	DB	TSRTN-$-1
 0616 F1        	POP	PSW
 0617 C3E905    	JMP	RUN1
 061A C9        TSRTN:	RET
                ;
 061B CD6D02    TSCR2:	CALL	SKPBL
 061E FE0D      	CPI	0DH
 0620 C8        	RZ
 0621 C33108    	JMP	ERWHT
                ;
 0624 CD8306    EEXPR:	CALL	EXPR
 0627 E5        	PUSH	H
 0628 212D06    	LXI	H,ROPKW-1
 062B C32902    	JMP	NXTKW
                ROPKW:	CASE	'>=',GE1
 062E+3E3D      	DB	'>='
 0630+86        	DB	(GE1 SHR 8)+80H
 0631+45        	DB	GE1 AND 0FFH
                	CASE	'<>',NE1
 0632+3C3E      	DB	'<>'
 0634+86        	DB	(NE1 SHR 8)+80H
 0635+4B        	DB	NE1 AND 0FFH
                	CASE	'>',GT1
 0636+3E        	DB	'>'
 0637+86        	DB	(GT1 SHR 8)+80H
 0638+51        	DB	GT1 AND 0FFH
                	CASE	'=',EQ1
 0639+3D        	DB	'='
 063A+86        	DB	(EQ1 SHR 8)+80H
 063B+60        	DB	EQ1 AND 0FFH
                	CASE	'<=',LE1
 063C+3C3D      	DB	'<='
 063E+86        	DB	(LE1 SHR 8)+80H
 063F+58        	DB	LE1 AND 0FFH
                	CASE	'<',LT1
 0640+3C        	DB	'<'
 0641+86        	DB	(LT1 SHR 8)+80H
 0642+66        	DB	LT1 AND 0FFH
                	ENDC	NOROP
 0643+86        	DB	(NOROP+8000H) SHR 8
 0644+6C        	DB	NOROP AND 0FFH
                ;
 0645 CD6E06    GE1:	CALL	IFEXQ
 0648 D8        	RC
 0649 6F        	MOV	L,A
 064A C9        	RET
                ;
 064B CD6E06    NE1:	CALL	IFEXQ
 064E C8        	RZ
 064F 6F        	MOV	L,A
 0650 C9        	RET
                ;
 0651 CD6E06    GT1:	CALL	IFEXQ
 0654 C8        	RZ
 0655 D8        	RC
 0656 6F        	MOV	L,A
 0657 C9        	RET
 0658 CD6E06    LE1:	CALL	IFEXQ
 065B 6F        	MOV	L,A
 065C C8        	RZ
 065D D8        	RC
 065E 6C        	MOV	L,H
 065F C9        	RET
 0660 CD6E06    EQ1:	CALL	IFEXQ
 0663 C0        	RNZ
 0664 6F        	MOV	L,A
 0665 C9        	RET
 0666 CD6E06    LT1:	CALL	IFEXQ
 0669 D0        	RNC
 066A 6F        	MOV	L,A
 066B C9        	RET
 066C E1        NOROP:	POP	H
 066D C9        	RET
                ;
 066E 79        IFEXQ:	MOV	A,C
 066F E1        	POP	H
 0670 C1        	POP	B
 0671 E5        	PUSH	H
 0672 C5        	PUSH	B
 0673 4F        	MOV	C,A
 0674 CD8306    	CALL	EXPR
 0677 EB        	XCHG
 0678 E3        	XTHL
 0679 CD4B07    	CALL	CMINT
 067C D1        	POP	D
 067D 210000    	LXI	H,0000H
 0680 3E01      	MVI	A,01H
 0682 C9        	RET
                ;
                EXPR:	TST	'-',EXPR1
 0683+CD5902    	CALL	TEST
 0686+2D        	DB	'-'
 0687+06        	DB	EXPR1-$-1
 0688 210000    	LXI	H,0000H
 068B C3A706    	JMP	NEGA1
                EXPR1:	TST	'+',EXPR3
 068E+CD5902    	CALL	TEST
 0691+2B        	DB	'+'
 0692+00        	DB	EXPR3-$-1
 0693 CDBF06    EXPR3:	CALL	TERM
                EXPR2:	TST	'+',NEGA0
 0696+CD5902    	CALL	TEST
 0699+2B        	DB	'+'
 069A+07        	DB	NEGA0-$-1
 069B E5        	PUSH	H
 069C CDBF06    	CALL	TERM
 069F C3AE06    	JMP	ADDBL
                NEGA0:	TST	'-',EXPRT
 06A2+CD5902    	CALL	TEST
 06A5+2D        	DB	'-'
 06A6+8D        	DB	EXPRT-$-1
 06A7 E5        NEGA1:	PUSH	H
 06A8 CDBF06    	CALL	TERM
 06AB CD3F07    	CALL	TWSCP
 06AE EB        ADDBL:	XCHG
 06AF E3        	XTHL
 06B0 7C        	MOV	A,H
 06B1 AA        	XRA	D
 06B2 7A        	MOV	A,D
 06B3 19        	DAD	D
 06B4 D1        	POP	D
 06B5 FA9606    	JM	EXPR2
 06B8 AC        	XRA	H
 06B9 F29606    	JP	EXPR2
 06BC C33808    	JMP	ERHOW
                ;
 06BF CD5707    TERM:	CALL	FACTR
                SMULT:	TST	'*',SDIV
 06C2+CD5902    	CALL	TEST
 06C5+2A        	DB	'*'
 06C6+2B        	DB	SDIV-$-1
 06C7 E5        	PUSH	H
 06C8 CD5707    	CALL	FACTR
 06CB 0600      	MVI	B,00H
 06CD CD3C07    	CALL	ABS
 06D0 EB        	XCHG
 06D1 E3        	XTHL
 06D2 CD3C07    	CALL	ABS
 06D5 7C        	MOV	A,H
 06D6 B7        	ORA	A
 06D7 CAE006    	JZ	MULT1
 06DA 7A        	MOV	A,D
 06DB B2        	ORA	D
 06DC EB        	XCHG
 06DD C23908    	JNZ	ERHW1
 06E0 7D        MULT1:	MOV	A,L
 06E1 2E00      	MVI	L,0
 06E3 B7        	ORA	A
 06E4 CA1107    	JZ	TERM1
 06E7 19        MULTL:	DAD	D
 06E8 DA3908    	JC	ERHW1
 06EB 3D        	DCR	A
 06EC C2E706    	JNZ	MULTL
 06EF C31107    	JMP	TERM1
                SDIV:	TST	'/',EXPRT
 06F2+CD5902    	CALL	TEST
 06F5+2F        	DB	'/'
 06F6+3D        	DB	EXPRT-$-1
 06F7 E5        	PUSH	H
 06F8 CD5707    	CALL	FACTR
 06FB 0600      	MVI	B,00H
 06FD CD3C07    	CALL	ABS
 0700 EB        	XCHG
 0701 E3        	XTHL
 0702 CD3C07    	CALL	ABS
 0705 7A        	MOV	A,D
 0706 B3        	ORA	E
 0707 CA3908    	JZ	ERHW1
 070A C5        	PUSH	B
 070B CD1F07    	CALL	DIVID
 070E 60        	MOV	H,B
 070F 69        	MOV	L,C
 0710 C1        	POP	B
 0711 D1        TERM1:	POP	D
 0712 7C        	MOV	A,H
 0713 B7        	ORA	A
 0714 FA3808    	JM	ERHOW
 0717 78        	MOV	A,B
 0718 B7        	ORA	A
 0719 FC3F07    	CM	TWSCP
 071C C3C206    	JMP	SMULT
                ;
 071F E5        DIVID:	PUSH	H
 0720 6C        	MOV	L,H
 0721 2600      	MVI	H,00H
 0723 CD2A07    	CALL	DIVSB
 0726 41        	MOV	B,C
 0727 7D        	MOV	A,L
 0728 E1        	POP	H
 0729 67        	MOV	H,A
 072A 0EFF      DIVSB:	MVI	C,0FFH
 072C 0C        DIVS1:	INR	C
 072D CD3507    	CALL	DIFF
 0730 D22C07    	JNC	DIVS1
 0733 19        	DAD	D
 0734 C9        EXPRT:	RET
                ;
 0735 7D        DIFF:	MOV	A,L
 0736 93        	SUB	E
 0737 6F        	MOV	L,A
 0738 7C        	MOV	A,H
 0739 9A        	SBB	D
 073A 67        	MOV	H,A
 073B C9        	RET
                ;
 073C 7C        ABS:	MOV	A,H
 073D B7        	ORA	A
 073E F0        	RP
 073F 7C        TWSCP:	MOV	A,H
 0740 2F        	CMA
 0741 67        	MOV	H,A
 0742 7D        	MOV	A,L
 0743 2F        	CMA
 0744 6F        	MOV	L,A
 0745 23        	INX	H
 0746 78        	MOV	A,B
 0747 EE80      	XRI	80H
 0749 47        	MOV	B,A
 074A C9        	RET
                ;
 074B 7C        CMINT:	MOV	A,H
 074C AA        	XRA	D
 074D F25107    	JP	COMPR
 0750 EB        	XCHG
 0751 7C        COMPR:	MOV	A,H
 0752 BA        	CMP	D
 0753 C0        	RNZ
 0754 7D        	MOV	A,L
 0755 BB        	CMP	E
 0756 C9        	RET
                ;
 0757 215C07    FACTR:	LXI	H,FNKW-1
 075A C32902    	JMP	NXTKW
                FNKW:	CASE	'RND',RND
 075D+524E44    	DB	'RND'
 0760+87        	DB	(RND SHR 8)+80H
 0761+6F        	DB	RND AND 0FFH
                	CASE	'ABS',FNABS
 0762+414253    	DB	'ABS'
 0765+87        	DB	(FNABS SHR 8)+80H
 0766+98        	DB	FNABS AND 0FFH
                	CASE	'SIZE',RSIZE
 0767+53495A45  	DB	'SIZE'
 076B+87        	DB	(RSIZE SHR 8)+80H
 076C+A4        	DB	RSIZE AND 0FFH
                	ENDC	VAR
 076D+87        	DB	(VAR+8000H) SHR 8
 076E+B1        	DB	VAR AND 0FFH
                ;
 076F CD2308    RND:	CALL	EXPR0
 0772 7C        	MOV	A,H
 0773 B7        	ORA	A
 0774 FA3808    	JM	ERHOW
 0777 B5        	ORA	L
 0778 CA3808    	JZ	ERHOW
 077B D5        	PUSH	D
 077C E5        	PUSH	H
 077D 2A1250    	LHLD	RWRK
                ;;	INX	H
 0780 7C        	MOV	A,H
 0781 E607      	ANI	07H
 0783 67        	MOV	H,A
                ;;	DCR	L
 0784 110001    	LXI	D,ITOP	;
 0787 19        	DAD	D	;
 0788 5E        RND1:	MOV	E,M
 0789 23        	INX	H
 078A 56        	MOV	D,M
 078B 221250    	SHLD	RWRK
 078E E1        	POP	H
 078F EB        	XCHG
 0790 C5        	PUSH	B
 0791 CD1F07    	CALL	DIVID
 0794 C1        	POP	B
 0795 D1        	POP	D
 0796 23        	INX	H
 0797 C9        	RET
                ;
 0798 CD2308    FNABS:	CALL	EXPR0
 079B CD3C07    	CALL	ABS
 079E 7C        	MOV	A,H
 079F B4        	ORA	H
 07A0 FA3808    	JM	ERHOW
 07A3 C9        	RET
                ;
 07A4 2A0050    RSIZE:	LHLD	OBTM
 07A7 D5        	PUSH	D
 07A8 EB        	XCHG
 07A9 210070    	LXI	H,VTOP
 07AC CD3507    	CALL	DIFF
 07AF D1        	POP	D
 07B0 C9        	RET
                ;
 07B1 CDBC07    VAR:	CALL	TSTV
 07B4 DA1D08    	JC	NUMB
 07B7 7E        	MOV	A,M
 07B8 23        	INX	H
 07B9 66        	MOV	H,M
 07BA 6F        	MOV	L,A
 07BB C9        	RET
                ;
 07BC CD6D02    TSTV:	CALL	SKPBL
 07BF D640      	SUI	'@'
 07C1 D8        	RC
 07C2 C2E007    	JNZ	TSTV1
 07C5 13        	INX	D
 07C6 CD2308    	CALL	EXPR0
 07C9 29        	DAD	H
 07CA DA3808    	JC	ERHOW
 07CD D5        	PUSH	D
 07CE EB        	XCHG
 07CF CDA407    	CALL	RSIZE
 07D2 CD5107    	CALL	COMPR
 07D5 DA4008    	JC	ERSY1
 07D8 210070    	LXI	H,VTOP
 07DB CD3507    	CALL	DIFF
 07DE D1        	POP	D
 07DF C9        	RET
 07E0 FE1B      TSTV1:	CPI	'Z'+1-'@'
 07E2 3F        	CMC
 07E3 D8        	RC
 07E4 13        	INX	D
 07E5 210070    	LXI	H,VTOP
 07E8 07        	RLC
 07E9 85        	ADD	L
 07EA 6F        	MOV	L,A
 07EB 3E00      	MVI	A,00H
 07ED 8C        	ADC	H
 07EE 67        	MOV	H,A
 07EF C9        	RET
                ;
 07F0 210000    GINT:	LXI	H,0000H
 07F3 44        	MOV	B,H
 07F4 CD6D02    	CALL	SKPBL
 07F7 FE30      GETI1:	CPI	'0'
 07F9 D8        	RC
 07FA FE3A      	CPI	'9'+1
 07FC D0        	RNC
 07FD 3EF0      	MVI	A,0F0H
 07FF A4        	ANA	H
 0800 C23808    	JNZ	ERHOW
 0803 04        	INR	B
 0804 C5        	PUSH	B
 0805 44        	MOV	B,H
 0806 4D        	MOV	C,L
 0807 29        	DAD	H
 0808 29        	DAD	H
 0809 09        	DAD	B
 080A 29        	DAD	H
 080B 1A        	LDAX	D
 080C 13        	INX	D
 080D E60F      	ANI	0FH
 080F 85        	ADD	L
 0810 6F        	MOV	L,A
 0811 3E00      	MVI	A,00H
 0813 8C        	ADC	H
 0814 67        	MOV	H,A
 0815 C1        	POP	B
 0816 1A        	LDAX	D
 0817 FA3808    	JM	ERHOW
 081A C3F707    	JMP	GETI1
                ;
 081D CDF007    NUMB:	CALL	GINT
 0820 78        	MOV	A,B
 0821 B7        	ORA	A
 0822 C0        	RNZ
                ;
                EXPR0:	TST	'(',ERWHT
 0823+CD5902    	CALL	TEST
 0826+28        	DB	'('
 0827+09        	DB	ERWHT-$-1
 0828 CD2406    	CALL	EEXPR
                	TST	')',ERWHT
 082B+CD5902    	CALL	TEST
 082E+29        	DB	')'
 082F+01        	DB	ERWHT-$-1
 0830 C9        	RET
                ;
 0831 D5        ERWHT:	PUSH	D
 0832 117608    ERWT1:	LXI	D,WHTMS
 0835 C34308    	JMP	LERMS
 0838 D5        ERHOW:	PUSH	D
 0839 117108    ERHW1:	LXI	D,HOWMS
 083C C34308    	JMP	LERMS
 083F D5        ERSRY:	PUSH	D
 0840 117C08    ERSY1:	LXI	D,SRYMS
 0843 97        LERMS:	SUB	A
 0844 CDB608    	CALL	MSG
 0847 D1        	POP	D
 0848 1A        	LDAX	D
 0849 F5        	PUSH	PSW
 084A 97        	SUB	A
 084B 12        	STAX	D
 084C 2A0250    	LHLD	CLABL
 084F E5        	PUSH	H
 0850 7E        	MOV	A,M
 0851 23        	INX	H
 0852 B6        	ORA	M
 0853 D1        	POP	D
 0854 CA2501    	JZ	START
 0857 7E        	MOV	A,M
 0858 B7        	ORA	A
 0859 FA4B05    	JM	ERRIN
 085C CD7E04    	CALL	WLINE
 085F 1B        	DCX	D
 0860 F1        	POP	PSW
 0861 12        	STAX	D
 0862 3E3F      	MVI	A,'?'
 0864 CDC608    	CALL	PUT
 0867 97        	SUB	A
 0868 CDB608    	CALL	MSG
 086B C32501    	JMP	START
                ;
 086E 4F4B      OKMES:	DB	'OK'
 0870 0D        	DB	0DH
 0871 484F573F  HOWMS:	DB	'HOW?'
 0875 0D        	DB	0DH
 0876 574841543FWHTMS:	DB	'WHAT?'
 087B 0D        	DB	0DH
 087C 534F525259SRYMS:	DB	'SORRY'
 0881 0D        	DB	0DH
                ;
 0882 50414C4F20OPNMS1:	DB	'PALO ALTO '
 088C 54494E5920	DB	'TINY BASIC'
 0896 0D        	DB	0DH
 0897 4D4F4E3830OPNMS2:	DB	'MON80 EXTENDED'
 08A5 0D        	DB	0DH
 08A6 5342433830OPNMS3:	DB	'SBC8080 EDITION'
 08B5 0D        	DB	0DH
                ;
 08B6 47        MSG:	MOV	B,A
 08B7 1A        MSG1:	LDAX	D
 08B8 13        	INX	D
 08B9 B8        	CMP	B
 08BA C8        	RZ
 08BB CDC608    	CALL	PUT
 08BE FE0D      	CPI	0DH
 08C0 C2B708    	JNZ	MSG1
 08C3 C9        	RET
                ;
 08C4 3E0D      CRLF:	MVI	A,0DH
 08C6 F5        PUT:	PUSH	PSW
 08C7 C5        	PUSH	B
 08C8 D5        	PUSH	D
 08C9 E5        	PUSH	H
 08CA 0E02      	MVI	C,02H
 08CC E67F      	ANI	07FH
 08CE 5F        	MOV	E,A
 08CF CD0500    	CALL	0005H
 08D2 E1        	POP	H
 08D3 D1        	POP	D
 08D4 C1        	POP	B	
 08D5 F1        	POP	PSW
                ;
 08D6 FE0D      	CPI	0DH
 08D8 C0        	RNZ
 08D9 3E0A      	MVI	A,0AH
 08DB CDC608    	CALL	PUT
 08DE 3E0D      	MVI	A,0DH
 08E0 C9        	RET
                ;
 08E1 =         BREAK	EQU	$
                GET:
 08E1 C5        	PUSH	B
 08E2 D5        	PUSH	D
 08E3 E5        	PUSH	H
 08E4 0E06      	MVI	C,06H
 08E6 1EFF      	MVI	E,0FFH
 08E8 CD0500    	CALL	0005H
 08EB E1        	POP	H
 08EC D1        	POP	D
 08ED C1        	POP	B
 08EE E67F      	ANI	7FH
 08F0 C8        	RZ
 08F1 FE1B      	CPI	ESC
 08F3 C2FB08    	JNZ	GET1
 08F6 33        	INX	SP
 08F7 33        	INX	SP
 08F8 C32501    	JMP	START
                ;
 08FB FE61      GET1:	CPI	'a'
 08FD D8        	RC
 08FE FE7B      	CPI	'z'+1
 0900 D0        	RNC
 0901 E6DF      	ANI	11011111B
 0903 C9        	RET
                CC1:
                MAIN:
 0904 211CFE    	LXI	H,-484
 0907 39        	DAD	SP
 0908 F9        	SPHL
 0909 21E201    	LXI	H,482
 090C 39        	DAD	SP
 090D EB        	XCHG;;
 090E 210040    	LXI	H,16384
 0911 CD8D2F    	CALL	CCPINT
 0914 219001    	LXI	H,400
 0917 39        	DAD	SP
 0918 E5        	PUSH	H
 0919 214201    	LXI	H,322
 091C 39        	DAD	SP
 091D E5        	PUSH	H
 091E 21F400    	LXI	H,244
 0921 39        	DAD	SP
 0922 E5        	PUSH	H
 0923 21A600    	LXI	H,166
 0926 39        	DAD	SP
 0927 E5        	PUSH	H
 0928 215800    	LXI	H,88
 092B 39        	DAD	SP
 092C E5        	PUSH	H
 092D 210A00    	LXI	H,10
 0930 39        	DAD	SP
 0931 EB        	XCHG;;
 0932 210000    	LXI	H,0
 0935 7D        	MOV	A,L
 0936 12        	STAX	D
 0937 D1        	POP	D
 0938 7D        	MOV	A,L
 0939 12        	STAX	D
 093A D1        	POP	D
 093B 7D        	MOV	A,L
 093C 12        	STAX	D
 093D D1        	POP	D
 093E 7D        	MOV	A,L
 093F 12        	STAX	D
 0940 D1        	POP	D
 0941 7D        	MOV	A,L
 0942 12        	STAX	D
 0943 D1        	POP	D
 0944 7D        	MOV	A,L
 0945 12        	STAX	D
                CC3:
 0946 21E201    	LXI	H,482
 0949 39        	DAD	SP
 094A CD4D2F    	CALL	CCGINT
 094D E5        	PUSH	H
 094E 3E01      	MVI	A,1
 0950 CD1319    	CALL	ASMPMT
 0953 C1        	POP	B
 0954 219001    	LXI	H,400
 0957 39        	DAD	SP
 0958 E5        	PUSH	H
 0959 214900    	LXI	H,73
 095C E5        	PUSH	H
 095D 3E02      	MVI	A,2
 095F CD9425    	CALL	GETSTR
 0962 C1        	POP	B
 0963 C1        	POP	B
 0964 219001    	LXI	H,400
 0967 39        	DAD	SP
 0968 E5        	PUSH	H
 0969 214201    	LXI	H,322
 096C 39        	DAD	SP
 096D E5        	PUSH	H
 096E 21A400    	LXI	H,164
 0971 39        	DAD	SP
 0972 E5        	PUSH	H
 0973 3E03      	MVI	A,3
 0975 CD3319    	CALL	SETCMD
 0978 C1        	POP	B
 0979 C1        	POP	B
 097A C1        	POP	B
 097B 21A000    	LXI	H,160
 097E 39        	DAD	SP
 097F E5        	PUSH	H
 0980 215200    	LXI	H,82
 0983 39        	DAD	SP
 0984 E5        	PUSH	H
 0985 210400    	LXI	H,4
 0988 39        	DAD	SP
 0989 E5        	PUSH	H
 098A 3E03      	MVI	A,3
 098C CDB21A    	CALL	SETPAR
 098F C1        	POP	B
 0990 C1        	POP	B
 0991 C1        	POP	B
 0992 219001    	LXI	H,400
 0995 39        	DAD	SP
 0996 CD402F    	CALL	CCGCHAR
 0999 7C        	MOV	A,H
 099A B5        	ORA	L
 099B CAAF09    	JZ	CC5
 099E 21F000    	LXI	H,240
 09A1 39        	DAD	SP
 09A2 E5        	PUSH	H
 09A3 214201    	LXI	H,322
 09A6 39        	DAD	SP
 09A7 E5        	PUSH	H
 09A8 3E02      	MVI	A,2
 09AA CDA51E    	CALL	STRCPY
 09AD C1        	POP	B
 09AE C1        	POP	B
                CC5:
 09AF 21F000    	LXI	H,240
 09B2 39        	DAD	SP
 09B3 E5        	PUSH	H
 09B4 210D0C    	LXI	H,CC2+0
 09B7 E5        	PUSH	H
 09B8 3E02      	MVI	A,2
 09BA CDD11E    	CALL	STRCMP
 09BD C1        	POP	B
 09BE C1        	POP	B
 09BF 7C        	MOV	A,H
 09C0 B5        	ORA	L
 09C1 C2460A    	JNZ	CC6
 09C4 215000    	LXI	H,80
 09C7 39        	DAD	SP
 09C8 E5        	PUSH	H
 09C9 3E01      	MVI	A,1
 09CB CD841D    	CALL	ISXSTR
 09CE C1        	POP	B
 09CF 7C        	MOV	A,H
 09D0 B5        	ORA	L
 09D1 CAE809    	JZ	CC7
 09D4 21E201    	LXI	H,482
 09D7 39        	DAD	SP
 09D8 E5        	PUSH	H
 09D9 215200    	LXI	H,82
 09DC 39        	DAD	SP
 09DD E5        	PUSH	H
 09DE 3E01      	MVI	A,1
 09E0 CD9F22    	CALL	XTOI
 09E3 C1        	POP	B
 09E4 D1        	POP	D
 09E5 CD8D2F    	CALL	CCPINT
                CC7:
 09E8 210000    	LXI	H,0
 09EB 39        	DAD	SP
 09EC E5        	PUSH	H
 09ED 3E01      	MVI	A,1
 09EF CD841D    	CALL	ISXSTR
 09F2 C1        	POP	B
 09F3 7C        	MOV	A,H
 09F4 B5        	ORA	L
 09F5 CA0F0A    	JZ	CC8
 09F8 21E001    	LXI	H,480
 09FB 39        	DAD	SP
 09FC E5        	PUSH	H
 09FD 210200    	LXI	H,2
 0A00 39        	DAD	SP
 0A01 E5        	PUSH	H
 0A02 3E01      	MVI	A,1
 0A04 CD9F22    	CALL	XTOI
 0A07 C1        	POP	B
 0A08 D1        	POP	D
 0A09 CD8D2F    	CALL	CCPINT
 0A0C C3230A    	JMP	CC9
                CC8:
 0A0F 21E001    	LXI	H,480
 0A12 39        	DAD	SP
 0A13 E5        	PUSH	H
 0A14 21E401    	LXI	H,484
 0A17 39        	DAD	SP
 0A18 CD4D2F    	CALL	CCGINT
 0A1B 111000    	LXI	D,16
 0A1E 19        	DAD	D
 0A1F D1        	POP	D
 0A20 CD8D2F    	CALL	CCPINT
                CC9:
 0A23 21E201    	LXI	H,482
 0A26 39        	DAD	SP
 0A27 E5        	PUSH	H
 0A28 21E401    	LXI	H,484
 0A2B 39        	DAD	SP
 0A2C CD4D2F    	CALL	CCGINT
 0A2F E5        	PUSH	H
 0A30 21E401    	LXI	H,484
 0A33 39        	DAD	SP
 0A34 CD4D2F    	CALL	CCGINT
 0A37 E5        	PUSH	H
 0A38 3E02      	MVI	A,2
 0A3A CD360C    	CALL	DISCOD
 0A3D C1        	POP	B
 0A3E C1        	POP	B
 0A3F D1        	POP	D
 0A40 CD8D2F    	CALL	CCPINT
 0A43 C3040C    	JMP	CC10
                CC6:
 0A46 21F000    	LXI	H,240
 0A49 39        	DAD	SP
 0A4A E5        	PUSH	H
 0A4B 21120C    	LXI	H,CC2+5
 0A4E E5        	PUSH	H
 0A4F 3E02      	MVI	A,2
 0A51 CDD11E    	CALL	STRCMP
 0A54 C1        	POP	B
 0A55 C1        	POP	B
 0A56 7C        	MOV	A,H
 0A57 B5        	ORA	L
 0A58 C2D80A    	JNZ	CC11
 0A5B 215000    	LXI	H,80
 0A5E 39        	DAD	SP
 0A5F E5        	PUSH	H
 0A60 3E01      	MVI	A,1
 0A62 CD841D    	CALL	ISXSTR
 0A65 C1        	POP	B
 0A66 7C        	MOV	A,H
 0A67 B5        	ORA	L
 0A68 CA7F0A    	JZ	CC12
 0A6B 21E201    	LXI	H,482
 0A6E 39        	DAD	SP
 0A6F E5        	PUSH	H
 0A70 215200    	LXI	H,82
 0A73 39        	DAD	SP
 0A74 E5        	PUSH	H
 0A75 3E01      	MVI	A,1
 0A77 CD9F22    	CALL	XTOI
 0A7A C1        	POP	B
 0A7B D1        	POP	D
 0A7C CD8D2F    	CALL	CCPINT
                CC12:
 0A7F 210000    	LXI	H,0
 0A82 39        	DAD	SP
 0A83 E5        	PUSH	H
 0A84 3E01      	MVI	A,1
 0A86 CD841D    	CALL	ISXSTR
 0A89 C1        	POP	B
 0A8A 7C        	MOV	A,H
 0A8B B5        	ORA	L
 0A8C CAA60A    	JZ	CC13
 0A8F 21E001    	LXI	H,480
 0A92 39        	DAD	SP
 0A93 E5        	PUSH	H
 0A94 210200    	LXI	H,2
 0A97 39        	DAD	SP
 0A98 E5        	PUSH	H
 0A99 3E01      	MVI	A,1
 0A9B CD9F22    	CALL	XTOI
 0A9E C1        	POP	B
 0A9F D1        	POP	D
 0AA0 CD8D2F    	CALL	CCPINT
 0AA3 C3B50A    	JMP	CC14
                CC13:
 0AA6 21E001    	LXI	H,480
 0AA9 39        	DAD	SP
 0AAA EB        	XCHG;;
 0AAB 21E201    	LXI	H,482
 0AAE 39        	DAD	SP
 0AAF CD4D2F    	CALL	CCGINT
 0AB2 CD8D2F    	CALL	CCPINT
                CC14:
 0AB5 21E201    	LXI	H,482
 0AB8 39        	DAD	SP
 0AB9 E5        	PUSH	H
 0ABA 21E401    	LXI	H,484
 0ABD 39        	DAD	SP
 0ABE CD4D2F    	CALL	CCGINT
 0AC1 E5        	PUSH	H
 0AC2 21E401    	LXI	H,484
 0AC5 39        	DAD	SP
 0AC6 CD4D2F    	CALL	CCGINT
 0AC9 E5        	PUSH	H
 0ACA 3E02      	MVI	A,2
 0ACC CD870E    	CALL	DMPCOD
 0ACF C1        	POP	B
 0AD0 C1        	POP	B
 0AD1 D1        	POP	D
 0AD2 CD8D2F    	CALL	CCPINT
 0AD5 C3040C    	JMP	CC15
                CC11:
 0AD8 214001    	LXI	H,320
 0ADB 39        	DAD	SP
 0ADC CD402F    	CALL	CCGCHAR
 0ADF 7C        	MOV	A,H
 0AE0 B5        	ORA	L
 0AE1 C2E70A    	JNZ	CC16
 0AE4 C3040C    	JMP	CC17
                CC16:
 0AE7 214001    	LXI	H,320
 0AEA 39        	DAD	SP
 0AEB E5        	PUSH	H
 0AEC 21170C    	LXI	H,CC2+10
 0AEF E5        	PUSH	H
 0AF0 3E02      	MVI	A,2
 0AF2 CDD11E    	CALL	STRCMP
 0AF5 C1        	POP	B
 0AF6 C1        	POP	B
 0AF7 7C        	MOV	A,H
 0AF8 B5        	ORA	L
 0AF9 C2030B    	JNZ	CC18
 0AFC AF        	XRA	A
 0AFD CDE126    	CALL	SYSTEM
 0B00 C3040C    	JMP	CC19
                CC18:
 0B03 214001    	LXI	H,320
 0B06 39        	DAD	SP
 0B07 E5        	PUSH	H
 0B08 211E0C    	LXI	H,CC2+17
 0B0B E5        	PUSH	H
 0B0C 3E02      	MVI	A,2
 0B0E CDD11E    	CALL	STRCMP
 0B11 C1        	POP	B
 0B12 C1        	POP	B
 0B13 7C        	MOV	A,H
 0B14 B5        	ORA	L
 0B15 C2260B    	JNZ	CC20
 0B18 21A000    	LXI	H,160
 0B1B 39        	DAD	SP
 0B1C E5        	PUSH	H
 0B1D 3E01      	MVI	A,1
 0B1F CD8211    	CALL	DSPHLP
 0B22 C1        	POP	B
 0B23 C3040C    	JMP	CC21
                CC20:
 0B26 214001    	LXI	H,320
 0B29 39        	DAD	SP
 0B2A E5        	PUSH	H
 0B2B 21230C    	LXI	H,CC2+22
 0B2E E5        	PUSH	H
 0B2F 3E02      	MVI	A,2
 0B31 CDD11E    	CALL	STRCMP
 0B34 C1        	POP	B
 0B35 C1        	POP	B
 0B36 7C        	MOV	A,H
 0B37 B5        	ORA	L
 0B38 C27C0B    	JNZ	CC22
 0B3B 215000    	LXI	H,80
 0B3E 39        	DAD	SP
 0B3F E5        	PUSH	H
 0B40 3E01      	MVI	A,1
 0B42 CD841D    	CALL	ISXSTR
 0B45 C1        	POP	B
 0B46 7C        	MOV	A,H
 0B47 B5        	ORA	L
 0B48 CA600B    	JZ	CC23
 0B4B 215000    	LXI	H,80
 0B4E 39        	DAD	SP
 0B4F E5        	PUSH	H
 0B50 3E01      	MVI	A,1
 0B52 CD9F22    	CALL	XTOI
 0B55 C1        	POP	B
 0B56 E5        	PUSH	H
 0B57 3E01      	MVI	A,1
 0B59 CDB026    	CALL	EXEC
 0B5C C1        	POP	B
 0B5D C3790B    	JMP	CC24
                CC23:
 0B60 21280C    	LXI	H,CC2+27
 0B63 E5        	PUSH	H
 0B64 3E01      	MVI	A,1
 0B66 CD6C25    	CALL	PUTSTR
 0B69 C1        	POP	B
 0B6A 215000    	LXI	H,80
 0B6D 39        	DAD	SP
 0B6E E5        	PUSH	H
 0B6F 3E01      	MVI	A,1
 0B71 CD6C25    	CALL	PUTSTR
 0B74 C1        	POP	B
 0B75 AF        	XRA	A
 0B76 CDD923    	CALL	PUTNWL
                CC24:
 0B79 C3040C    	JMP	CC25
                CC22:
 0B7C 214001    	LXI	H,320
 0B7F 39        	DAD	SP
 0B80 E5        	PUSH	H
 0B81 212F0C    	LXI	H,CC2+34
 0B84 E5        	PUSH	H
 0B85 3E02      	MVI	A,2
 0B87 CDD11E    	CALL	STRCMP
 0B8A C1        	POP	B
 0B8B C1        	POP	B
 0B8C 7C        	MOV	A,H
 0B8D B5        	ORA	L
 0B8E C2B10B    	JNZ	CC26
 0B91 21E201    	LXI	H,482
 0B94 39        	DAD	SP
 0B95 E5        	PUSH	H
 0B96 21E401    	LXI	H,484
 0B99 39        	DAD	SP
 0B9A CD4D2F    	CALL	CCGINT
 0B9D E5        	PUSH	H
 0B9E 21A400    	LXI	H,164
 0BA1 39        	DAD	SP
 0BA2 E5        	PUSH	H
 0BA3 3E02      	MVI	A,2
 0BA5 CD7110    	CALL	DEFINE
 0BA8 C1        	POP	B
 0BA9 C1        	POP	B
 0BAA D1        	POP	D
 0BAB CD8D2F    	CALL	CCPINT
 0BAE C3040C    	JMP	CC27
                CC26:
 0BB1 214001    	LXI	H,320
 0BB4 39        	DAD	SP
 0BB5 E5        	PUSH	H
 0BB6 3E01      	MVI	A,1
 0BB8 CD841D    	CALL	ISXSTR
 0BBB C1        	POP	B
 0BBC 7C        	MOV	A,H
 0BBD B5        	ORA	L
 0BBE CAD80B    	JZ	CC28
 0BC1 21E201    	LXI	H,482
 0BC4 39        	DAD	SP
 0BC5 E5        	PUSH	H
 0BC6 214201    	LXI	H,322
 0BC9 39        	DAD	SP
 0BCA E5        	PUSH	H
 0BCB 3E01      	MVI	A,1
 0BCD CD9F22    	CALL	XTOI
 0BD0 C1        	POP	B
 0BD1 D1        	POP	D
 0BD2 CD8D2F    	CALL	CCPINT
 0BD5 C3040C    	JMP	CC29
                CC28:
 0BD8 21E201    	LXI	H,482
 0BDB 39        	DAD	SP
 0BDC E5        	PUSH	H
 0BDD 21E401    	LXI	H,484
 0BE0 39        	DAD	SP
 0BE1 CD4D2F    	CALL	CCGINT
 0BE4 E5        	PUSH	H
 0BE5 214401    	LXI	H,324
 0BE8 39        	DAD	SP
 0BE9 E5        	PUSH	H
 0BEA 215600    	LXI	H,86
 0BED 39        	DAD	SP
 0BEE E5        	PUSH	H
 0BEF 210800    	LXI	H,8
 0BF2 39        	DAD	SP
 0BF3 E5        	PUSH	H
 0BF4 3E04      	MVI	A,4
 0BF6 CDD215    	CALL	ASMLIN
 0BF9 EB        	XCHG;;
 0BFA 210800    	LXI	H,8
 0BFD 39        	DAD	SP
 0BFE F9        	SPHL
 0BFF EB        	XCHG;;
 0C00 D1        	POP	D
 0C01 CD8D2F    	CALL	CCPINT
                CC29:
                CC27:
                CC25:
                CC21:
                CC19:
                CC17:
                CC15:
                CC10:
 0C04 C34609    	JMP	CC3
                CC4:
 0C07 21E401    	LXI	H,484
 0C0A 39        	DAD	SP
 0C0B F9        	SPHL
 0C0C C9        	RET
 0C0D 4C49535400CC2:	DB	76,73,83,84,0,68,85,77,80,0
 0C17 5359535445	DB	83,89,83,84,69,77,0,72,69,76
 0C21 5000455845	DB	80,0,69,88,69,67,0,69,82,82
 0C2B 4F522D0044	DB	79,82,45,0,68,69,70,73,78,69
 0C35 00        	DB	0
                DISCOD:
                CC33:
 0C36 210400    	LXI	H,4
 0C39 39        	DAD	SP
 0C3A E5        	PUSH	H
 0C3B 210600    	LXI	H,6
 0C3E 39        	DAD	SP
 0C3F CD4D2F    	CALL	CCGINT
 0C42 E5        	PUSH	H
 0C43 3E01      	MVI	A,1
 0C45 CD6C0C    	CALL	DISLIN
 0C48 C1        	POP	B
 0C49 D1        	POP	D
 0C4A CD8D2F    	CALL	CCPINT
                CC31:
 0C4D 210400    	LXI	H,4
 0C50 39        	DAD	SP
 0C51 CD4D2F    	CALL	CCGINT
 0C54 EB        	XCHG;;
 0C55 C1        	POP	B
 0C56 E1        	POP	H
 0C57 E5        	PUSH	H
 0C58 C5        	PUSH	B
 0C59 CDF22F    	CALL	CCULE
 0C5C 7C        	MOV	A,H
 0C5D B5        	ORA	L
 0C5E CA640C    	JZ	CC32
 0C61 C3360C    	JMP	CC33
                CC32:
 0C64 210400    	LXI	H,4
 0C67 39        	DAD	SP
 0C68 CD4D2F    	CALL	CCGINT
 0C6B C9        	RET
                DISLIN:
 0C6C 3B        	DCX	SP
 0C6D C5        	PUSH	B
 0C6E 212000    	LXI	H,32
 0C71 E5        	PUSH	H
 0C72 3E01      	MVI	A,1
 0C74 CDBB26    	CALL	PUTCHR
 0C77 C1        	POP	B
 0C78 210500    	LXI	H,5
 0C7B 39        	DAD	SP
 0C7C CD4D2F    	CALL	CCGINT
 0C7F E5        	PUSH	H
 0C80 3E01      	MVI	A,1
 0C82 CDE723    	CALL	PUTWRD
 0C85 C1        	POP	B
 0C86 212000    	LXI	H,32
 0C89 E5        	PUSH	H
 0C8A 3E01      	MVI	A,1
 0C8C CDBB26    	CALL	PUTCHR
 0C8F C1        	POP	B
 0C90 210200    	LXI	H,2
 0C93 39        	DAD	SP
 0C94 E5        	PUSH	H
 0C95 210700    	LXI	H,7
 0C98 39        	DAD	SP
 0C99 54        	MOV	D,H
 0C9A 5D        	MOV	E,L
 0C9B CD4D2F    	CALL	CCGINT
 0C9E 23        	INX	H
 0C9F CD8D2F    	CALL	CCPINT
 0CA2 2B        	DCX	H
 0CA3 CD402F    	CALL	CCGCHAR
 0CA6 D1        	POP	D
 0CA7 7D        	MOV	A,L
 0CA8 12        	STAX	D
 0CA9 210200    	LXI	H,2
 0CAC 39        	DAD	SP
 0CAD CD402F    	CALL	CCGCHAR
 0CB0 E5        	PUSH	H
 0CB1 3E01      	MVI	A,1
 0CB3 CD582E    	CALL	OPECOD
 0CB6 C1        	POP	B
 0CB7 E5        	PUSH	H
 0CB8 3E01      	MVI	A,1
 0CBA CD6C25    	CALL	PUTSTR
 0CBD C1        	POP	B
 0CBE 210000    	LXI	H,0
 0CC1 39        	DAD	SP
 0CC2 EB        	XCHG;;
 0CC3 210500    	LXI	H,5
 0CC6 39        	DAD	SP
 0CC7 CD4D2F    	CALL	CCGINT
 0CCA CD8D2F    	CALL	CCPINT
 0CCD 210200    	LXI	H,2
 0CD0 39        	DAD	SP
 0CD1 CD402F    	CALL	CCGCHAR
 0CD4 E5        	PUSH	H
 0CD5 3E01      	MVI	A,1
 0CD7 CD692E    	CALL	OPERD1
 0CDA C1        	POP	B
 0CDB CD4D2F    	CALL	CCGINT
 0CDE EB        	XCHG;;
 0CDF 210100    	LXI	H,1
 0CE2 CDA82F    	CALL	CCEQ
 0CE5 7C        	MOV	A,H
 0CE6 B5        	ORA	L
 0CE7 CA180D    	JZ	CC35
 0CEA 210900    	LXI	H,9
 0CED E5        	PUSH	H
 0CEE 3E01      	MVI	A,1
 0CF0 CDBB26    	CALL	PUTCHR
 0CF3 C1        	POP	B
 0CF4 210500    	LXI	H,5
 0CF7 39        	DAD	SP
 0CF8 CD4D2F    	CALL	CCGINT
 0CFB CD402F    	CALL	CCGCHAR
 0CFE E5        	PUSH	H
 0CFF 3E01      	MVI	A,1
 0D01 CDAC24    	CALL	PUTBYT
 0D04 C1        	POP	B
 0D05 210500    	LXI	H,5
 0D08 39        	DAD	SP
 0D09 E5        	PUSH	H
 0D0A CD4D2F    	CALL	CCGINT
 0D0D 110100    	LXI	D,1
 0D10 19        	DAD	D
 0D11 D1        	POP	D
 0D12 CD8D2F    	CALL	CCPINT
 0D15 C3A40D    	JMP	CC36
                CC35:
 0D18 210200    	LXI	H,2
 0D1B 39        	DAD	SP
 0D1C CD402F    	CALL	CCGCHAR
 0D1F E5        	PUSH	H
 0D20 3E01      	MVI	A,1
 0D22 CD692E    	CALL	OPERD1
 0D25 C1        	POP	B
 0D26 CD4D2F    	CALL	CCGINT
 0D29 EB        	XCHG;;
 0D2A 210200    	LXI	H,2
 0D2D CDA82F    	CALL	CCEQ
 0D30 7C        	MOV	A,H
 0D31 B5        	ORA	L
 0D32 CA5E0D    	JZ	CC37
 0D35 210900    	LXI	H,9
 0D38 E5        	PUSH	H
 0D39 3E01      	MVI	A,1
 0D3B CDBB26    	CALL	PUTCHR
 0D3E C1        	POP	B
 0D3F E1        	POP	H
 0D40 E5        	PUSH	H
 0D41 CD4D2F    	CALL	CCGINT
 0D44 E5        	PUSH	H
 0D45 3E01      	MVI	A,1
 0D47 CDE723    	CALL	PUTWRD
 0D4A C1        	POP	B
 0D4B 210500    	LXI	H,5
 0D4E 39        	DAD	SP
 0D4F E5        	PUSH	H
 0D50 CD4D2F    	CALL	CCGINT
 0D53 110200    	LXI	D,2
 0D56 19        	DAD	D
 0D57 D1        	POP	D
 0D58 CD8D2F    	CALL	CCPINT
 0D5B C3A40D    	JMP	CC38
                CC37:
 0D5E 210200    	LXI	H,2
 0D61 39        	DAD	SP
 0D62 CD402F    	CALL	CCGCHAR
 0D65 E5        	PUSH	H
 0D66 3E01      	MVI	A,1
 0D68 CD692E    	CALL	OPERD1
 0D6B C1        	POP	B
 0D6C CD4D2F    	CALL	CCGINT
 0D6F 7C        	MOV	A,H
 0D70 B5        	ORA	L
 0D71 CA960D    	JZ	CC39
 0D74 210900    	LXI	H,9
 0D77 E5        	PUSH	H
 0D78 3E01      	MVI	A,1
 0D7A CDBB26    	CALL	PUTCHR
 0D7D C1        	POP	B
 0D7E 210200    	LXI	H,2
 0D81 39        	DAD	SP
 0D82 CD402F    	CALL	CCGCHAR
 0D85 E5        	PUSH	H
 0D86 3E01      	MVI	A,1
 0D88 CD692E    	CALL	OPERD1
 0D8B C1        	POP	B
 0D8C E5        	PUSH	H
 0D8D 3E01      	MVI	A,1
 0D8F CD6C25    	CALL	PUTSTR
 0D92 C1        	POP	B
 0D93 C3A40D    	JMP	CC40
                CC39:
 0D96 AF        	XRA	A
 0D97 CDD923    	CALL	PUTNWL
 0D9A 210500    	LXI	H,5
 0D9D 39        	DAD	SP
 0D9E CD4D2F    	CALL	CCGINT
 0DA1 33        	INX	SP
 0DA2 C1        	POP	B
 0DA3 C9        	RET
                CC40:
                CC38:
                CC36:
 0DA4 210000    	LXI	H,0
 0DA7 39        	DAD	SP
 0DA8 EB        	XCHG;;
 0DA9 210500    	LXI	H,5
 0DAC 39        	DAD	SP
 0DAD CD4D2F    	CALL	CCGINT
 0DB0 CD8D2F    	CALL	CCPINT
 0DB3 210200    	LXI	H,2
 0DB6 39        	DAD	SP
 0DB7 CD402F    	CALL	CCGCHAR
 0DBA E5        	PUSH	H
 0DBB 3E01      	MVI	A,1
 0DBD CD7A2E    	CALL	OPERD2
 0DC0 C1        	POP	B
 0DC1 CD4D2F    	CALL	CCGINT
 0DC4 EB        	XCHG;;
 0DC5 210100    	LXI	H,1
 0DC8 CDA82F    	CALL	CCEQ
 0DCB 7C        	MOV	A,H
 0DCC B5        	ORA	L
 0DCD CAFE0D    	JZ	CC41
 0DD0 212C00    	LXI	H,44
 0DD3 E5        	PUSH	H
 0DD4 3E01      	MVI	A,1
 0DD6 CDBB26    	CALL	PUTCHR
 0DD9 C1        	POP	B
 0DDA 210500    	LXI	H,5
 0DDD 39        	DAD	SP
 0DDE CD4D2F    	CALL	CCGINT
 0DE1 CD402F    	CALL	CCGCHAR
 0DE4 E5        	PUSH	H
 0DE5 3E01      	MVI	A,1
 0DE7 CDAC24    	CALL	PUTBYT
 0DEA C1        	POP	B
 0DEB 210500    	LXI	H,5
 0DEE 39        	DAD	SP
 0DEF E5        	PUSH	H
 0DF0 CD4D2F    	CALL	CCGINT
 0DF3 110100    	LXI	D,1
 0DF6 19        	DAD	D
 0DF7 D1        	POP	D
 0DF8 CD8D2F    	CALL	CCPINT
 0DFB C3790E    	JMP	CC42
                CC41:
 0DFE 210200    	LXI	H,2
 0E01 39        	DAD	SP
 0E02 CD402F    	CALL	CCGCHAR
 0E05 E5        	PUSH	H
 0E06 3E01      	MVI	A,1
 0E08 CD7A2E    	CALL	OPERD2
 0E0B C1        	POP	B
 0E0C CD4D2F    	CALL	CCGINT
 0E0F EB        	XCHG;;
 0E10 210200    	LXI	H,2
 0E13 CDA82F    	CALL	CCEQ
 0E16 7C        	MOV	A,H
 0E17 B5        	ORA	L
 0E18 CA440E    	JZ	CC43
 0E1B 212C00    	LXI	H,44
 0E1E E5        	PUSH	H
 0E1F 3E01      	MVI	A,1
 0E21 CDBB26    	CALL	PUTCHR
 0E24 C1        	POP	B
 0E25 E1        	POP	H
 0E26 E5        	PUSH	H
 0E27 CD4D2F    	CALL	CCGINT
 0E2A E5        	PUSH	H
 0E2B 3E01      	MVI	A,1
 0E2D CDE723    	CALL	PUTWRD
 0E30 C1        	POP	B
 0E31 210500    	LXI	H,5
 0E34 39        	DAD	SP
 0E35 E5        	PUSH	H
 0E36 CD4D2F    	CALL	CCGINT
 0E39 110200    	LXI	D,2
 0E3C 19        	DAD	D
 0E3D D1        	POP	D
 0E3E CD8D2F    	CALL	CCPINT
 0E41 C3790E    	JMP	CC44
                CC43:
 0E44 210200    	LXI	H,2
 0E47 39        	DAD	SP
 0E48 CD402F    	CALL	CCGCHAR
 0E4B E5        	PUSH	H
 0E4C 3E01      	MVI	A,1
 0E4E CD7A2E    	CALL	OPERD2
 0E51 C1        	POP	B
 0E52 CD4D2F    	CALL	CCGINT
 0E55 7C        	MOV	A,H
 0E56 B5        	ORA	L
 0E57 CA790E    	JZ	CC45
 0E5A 212C00    	LXI	H,44
 0E5D E5        	PUSH	H
 0E5E 3E01      	MVI	A,1
 0E60 CDBB26    	CALL	PUTCHR
 0E63 C1        	POP	B
 0E64 210200    	LXI	H,2
 0E67 39        	DAD	SP
 0E68 CD402F    	CALL	CCGCHAR
 0E6B E5        	PUSH	H
 0E6C 3E01      	MVI	A,1
 0E6E CD7A2E    	CALL	OPERD2
 0E71 C1        	POP	B
 0E72 E5        	PUSH	H
 0E73 3E01      	MVI	A,1
 0E75 CD6C25    	CALL	PUTSTR
 0E78 C1        	POP	B
                CC45:
                CC44:
                CC42:
 0E79 AF        	XRA	A
 0E7A CDD923    	CALL	PUTNWL
 0E7D 210500    	LXI	H,5
 0E80 39        	DAD	SP
 0E81 CD4D2F    	CALL	CCGINT
 0E84 33        	INX	SP
 0E85 C1        	POP	B
 0E86 C9        	RET
                DMPCOD:
 0E87 21FD0E    	LXI	H,CC46+0
 0E8A E5        	PUSH	H
 0E8B 3E01      	MVI	A,1
 0E8D CD6C25    	CALL	PUTSTR
 0E90 C1        	POP	B
 0E91 21040F    	LXI	H,CC46+7
 0E94 E5        	PUSH	H
 0E95 3E01      	MVI	A,1
 0E97 CD6C25    	CALL	PUTSTR
 0E9A C1        	POP	B
 0E9B 21350F    	LXI	H,CC46+56
 0E9E E5        	PUSH	H
 0E9F 3E01      	MVI	A,1
 0EA1 CD6C25    	CALL	PUTSTR
 0EA4 C1        	POP	B
 0EA5 AF        	XRA	A
 0EA6 CDD923    	CALL	PUTNWL
 0EA9 210400    	LXI	H,4
 0EAC 39        	DAD	SP
 0EAD E5        	PUSH	H
 0EAE 210600    	LXI	H,6
 0EB1 39        	DAD	SP
 0EB2 CD4D2F    	CALL	CCGINT
 0EB5 EB        	XCHG;;
 0EB6 21F0FF    	LXI	H,-16
 0EB9 CDA12F    	CALL	CCAND
 0EBC D1        	POP	D
 0EBD CD8D2F    	CALL	CCPINT
                CC49:
 0EC0 210400    	LXI	H,4
 0EC3 39        	DAD	SP
 0EC4 E5        	PUSH	H
 0EC5 210600    	LXI	H,6
 0EC8 39        	DAD	SP
 0EC9 CD4D2F    	CALL	CCGINT
 0ECC E5        	PUSH	H
 0ECD 3E01      	MVI	A,1
 0ECF CD3B0F    	CALL	DMPLIN
 0ED2 C1        	POP	B
 0ED3 D1        	POP	D
 0ED4 CD8D2F    	CALL	CCPINT
                CC47:
 0ED7 210400    	LXI	H,4
 0EDA 39        	DAD	SP
 0EDB CD4D2F    	CALL	CCGINT
 0EDE EB        	XCHG;;
 0EDF 210100    	LXI	H,1
 0EE2 CD0430    	CALL	CCSUB
 0EE5 EB        	XCHG;;
 0EE6 C1        	POP	B
 0EE7 E1        	POP	H
 0EE8 E5        	PUSH	H
 0EE9 C5        	PUSH	B
 0EEA CDE52F    	CALL	CCULT
 0EED 7C        	MOV	A,H
 0EEE B5        	ORA	L
 0EEF CAF50E    	JZ	CC48
 0EF2 C3C00E    	JMP	CC49
                CC48:
 0EF5 210400    	LXI	H,4
 0EF8 39        	DAD	SP
 0EF9 CD4D2F    	CALL	CCGINT
 0EFC C9        	RET
 0EFD 2020202020CC46:	DB	32,32,32,32,32,32,0,43,48,32
 0F07 2B31202B32	DB	43,49,32,43,50,32,43,51,32,43
 0F11 34202B3520	DB	52,32,43,53,32,43,54,32,43,55
 0F1B 202B38202B	DB	32,43,56,32,43,57,32,43,65,32
 0F25 2B42202B43	DB	43,66,32,43,67,32,43,68,32,43
 0F2F 45202B4620	DB	69,32,43,70,32,0,65,83,67,73
 0F39 4900      	DB	73,0
                DMPLIN:
 0F3B 21EEFF    	LXI	H,-18
 0F3E 39        	DAD	SP
 0F3F F9        	SPHL
 0F40 212000    	LXI	H,32
 0F43 E5        	PUSH	H
 0F44 3E01      	MVI	A,1
 0F46 CDBB26    	CALL	PUTCHR
 0F49 C1        	POP	B
 0F4A 211400    	LXI	H,20
 0F4D 39        	DAD	SP
 0F4E CD4D2F    	CALL	CCGINT
 0F51 E5        	PUSH	H
 0F52 3E01      	MVI	A,1
 0F54 CDE723    	CALL	PUTWRD
 0F57 C1        	POP	B
 0F58 212000    	LXI	H,32
 0F5B E5        	PUSH	H
 0F5C 3E01      	MVI	A,1
 0F5E CDBB26    	CALL	PUTCHR
 0F61 C1        	POP	B
 0F62 210000    	LXI	H,0
 0F65 39        	DAD	SP
 0F66 EB        	XCHG;;
 0F67 210000    	LXI	H,0
 0F6A CD8D2F    	CALL	CCPINT
                CC53:
 0F6D D1        	POP	D
 0F6E D5        	PUSH	D
 0F6F 211000    	LXI	H,16
 0F72 CDC82F    	CALL	CCLT
 0F75 7C        	MOV	A,H
 0F76 B5        	ORA	L
 0F77 CAAE0F    	JZ	CC52
 0F7A C38E0F    	JMP	CC54
                CC51:
 0F7D 210000    	LXI	H,0
 0F80 39        	DAD	SP
 0F81 54        	MOV	D,H
 0F82 5D        	MOV	E,L
 0F83 CD4D2F    	CALL	CCGINT
 0F86 23        	INX	H
 0F87 CD8D2F    	CALL	CCPINT
 0F8A 2B        	DCX	H
 0F8B C36D0F    	JMP	CC53
                CC54:
 0F8E 210200    	LXI	H,2
 0F91 39        	DAD	SP
 0F92 EB        	XCHG;;
 0F93 E1        	POP	H
 0F94 E5        	PUSH	H
 0F95 19        	DAD	D
 0F96 E5        	PUSH	H
 0F97 211600    	LXI	H,22
 0F9A 39        	DAD	SP
 0F9B 54        	MOV	D,H
 0F9C 5D        	MOV	E,L
 0F9D CD4D2F    	CALL	CCGINT
 0FA0 23        	INX	H
 0FA1 CD8D2F    	CALL	CCPINT
 0FA4 2B        	DCX	H
 0FA5 CD402F    	CALL	CCGCHAR
 0FA8 D1        	POP	D
 0FA9 7D        	MOV	A,L
 0FAA 12        	STAX	D
 0FAB C37D0F    	JMP	CC51
                CC52:
 0FAE 210000    	LXI	H,0
 0FB1 39        	DAD	SP
 0FB2 EB        	XCHG;;
 0FB3 210000    	LXI	H,0
 0FB6 CD8D2F    	CALL	CCPINT
                CC57:
 0FB9 D1        	POP	D
 0FBA D5        	PUSH	D
 0FBB 211000    	LXI	H,16
 0FBE CDC82F    	CALL	CCLT
 0FC1 7C        	MOV	A,H
 0FC2 B5        	ORA	L
 0FC3 CAF90F    	JZ	CC56
 0FC6 C3DA0F    	JMP	CC58
                CC55:
 0FC9 210000    	LXI	H,0
 0FCC 39        	DAD	SP
 0FCD 54        	MOV	D,H
 0FCE 5D        	MOV	E,L
 0FCF CD4D2F    	CALL	CCGINT
 0FD2 23        	INX	H
 0FD3 CD8D2F    	CALL	CCPINT
 0FD6 2B        	DCX	H
 0FD7 C3B90F    	JMP	CC57
                CC58:
 0FDA 210200    	LXI	H,2
 0FDD 39        	DAD	SP
 0FDE EB        	XCHG;;
 0FDF E1        	POP	H
 0FE0 E5        	PUSH	H
 0FE1 19        	DAD	D
 0FE2 CD402F    	CALL	CCGCHAR
 0FE5 E5        	PUSH	H
 0FE6 3E01      	MVI	A,1
 0FE8 CDAC24    	CALL	PUTBYT
 0FEB C1        	POP	B
 0FEC 212000    	LXI	H,32
 0FEF E5        	PUSH	H
 0FF0 3E01      	MVI	A,1
 0FF2 CDBB26    	CALL	PUTCHR
 0FF5 C1        	POP	B
 0FF6 C3C90F    	JMP	CC55
                CC56:
 0FF9 210000    	LXI	H,0
 0FFC 39        	DAD	SP
 0FFD EB        	XCHG;;
 0FFE 210000    	LXI	H,0
 1001 CD8D2F    	CALL	CCPINT
                CC61:
 1004 D1        	POP	D
 1005 D5        	PUSH	D
 1006 211000    	LXI	H,16
 1009 CDC82F    	CALL	CCLT
 100C 7C        	MOV	A,H
 100D B5        	ORA	L
 100E CA5E10    	JZ	CC60
 1011 C32510    	JMP	CC62
                CC59:
 1014 210000    	LXI	H,0
 1017 39        	DAD	SP
 1018 54        	MOV	D,H
 1019 5D        	MOV	E,L
 101A CD4D2F    	CALL	CCGINT
 101D 23        	INX	H
 101E CD8D2F    	CALL	CCPINT
 1021 2B        	DCX	H
 1022 C30410    	JMP	CC61
                CC62:
 1025 210200    	LXI	H,2
 1028 39        	DAD	SP
 1029 EB        	XCHG;;
 102A E1        	POP	H
 102B E5        	PUSH	H
 102C 19        	DAD	D
 102D CD402F    	CALL	CCGCHAR
 1030 E5        	PUSH	H
 1031 3E01      	MVI	A,1
 1033 CD3C1C    	CALL	ISPRINT
 1036 C1        	POP	B
 1037 7C        	MOV	A,H
 1038 B5        	ORA	L
 1039 CA5110    	JZ	CC63
 103C 210200    	LXI	H,2
 103F 39        	DAD	SP
 1040 EB        	XCHG;;
 1041 E1        	POP	H
 1042 E5        	PUSH	H
 1043 19        	DAD	D
 1044 CD402F    	CALL	CCGCHAR
 1047 E5        	PUSH	H
 1048 3E01      	MVI	A,1
 104A CDBB26    	CALL	PUTCHR
 104D C1        	POP	B
 104E C35B10    	JMP	CC64
                CC63:
 1051 212E00    	LXI	H,46
 1054 E5        	PUSH	H
 1055 3E01      	MVI	A,1
 1057 CDBB26    	CALL	PUTCHR
 105A C1        	POP	B
                CC64:
 105B C31410    	JMP	CC59
                CC60:
 105E AF        	XRA	A
 105F CDD923    	CALL	PUTNWL
 1062 211400    	LXI	H,20
 1065 39        	DAD	SP
 1066 CD4D2F    	CALL	CCGINT
 1069 EB        	XCHG;;
 106A 211200    	LXI	H,18
 106D 39        	DAD	SP
 106E F9        	SPHL
 106F EB        	XCHG;;
 1070 C9        	RET
                DEFINE:
 1071 21AEFF    	LXI	H,-82
 1074 39        	DAD	SP
 1075 F9        	SPHL
                CC66:
 1076 215400    	LXI	H,84
 1079 39        	DAD	SP
 107A CD4D2F    	CALL	CCGINT
 107D CD402F    	CALL	CCGCHAR
 1080 7C        	MOV	A,H
 1081 B5        	ORA	L
 1082 CA6C11    	JZ	CC67
 1085 215400    	LXI	H,84
 1088 39        	DAD	SP
 1089 CD4D2F    	CALL	CCGINT
 108C E5        	PUSH	H
 108D 210400    	LXI	H,4
 1090 39        	DAD	SP
 1091 E5        	PUSH	H
 1092 215800    	LXI	H,88
 1095 39        	DAD	SP
 1096 CD4D2F    	CALL	CCGINT
 1099 E5        	PUSH	H
 109A 3E03      	MVI	A,3
 109C CDB21A    	CALL	SETPAR
 109F C1        	POP	B
 10A0 C1        	POP	B
 10A1 C1        	POP	B
 10A2 210000    	LXI	H,0
 10A5 39        	DAD	SP
 10A6 EB        	XCHG;;
 10A7 210200    	LXI	H,2
 10AA 39        	DAD	SP
 10AB CD8D2F    	CALL	CCPINT
 10AE E1        	POP	H
 10AF E5        	PUSH	H
 10B0 E5        	PUSH	H
 10B1 3E01      	MVI	A,1
 10B3 CD841D    	CALL	ISXSTR
 10B6 C1        	POP	B
 10B7 7C        	MOV	A,H
 10B8 B5        	ORA	L
 10B9 CADC10    	JZ	CC68
 10BC 215600    	LXI	H,86
 10BF 39        	DAD	SP
 10C0 54        	MOV	D,H
 10C1 5D        	MOV	E,L
 10C2 CD4D2F    	CALL	CCGINT
 10C5 23        	INX	H
 10C6 CD8D2F    	CALL	CCPINT
 10C9 2B        	DCX	H
 10CA E5        	PUSH	H
 10CB C1        	POP	B
 10CC E1        	POP	H
 10CD E5        	PUSH	H
 10CE C5        	PUSH	B
 10CF E5        	PUSH	H
 10D0 3E01      	MVI	A,1
 10D2 CD6621    	CALL	XTOB
 10D5 C1        	POP	B
 10D6 D1        	POP	D
 10D7 7D        	MOV	A,L
 10D8 12        	STAX	D
 10D9 C36911    	JMP	CC69
                CC68:
 10DC E1        	POP	H
 10DD E5        	PUSH	H
 10DE CD402F    	CALL	CCGCHAR
 10E1 EB        	XCHG;;
 10E2 212700    	LXI	H,39
 10E5 CDA82F    	CALL	CCEQ
 10E8 7C        	MOV	A,H
 10E9 B5        	ORA	L
 10EA CA4D11    	JZ	CC70
 10ED 210000    	LXI	H,0
 10F0 39        	DAD	SP
 10F1 54        	MOV	D,H
 10F2 5D        	MOV	E,L
 10F3 CD4D2F    	CALL	CCGINT
 10F6 23        	INX	H
 10F7 CD8D2F    	CALL	CCPINT
 10FA 2B        	DCX	H
                CC71:
 10FB E1        	POP	H
 10FC E5        	PUSH	H
 10FD CD402F    	CALL	CCGCHAR
 1100 7C        	MOV	A,H
 1101 B5        	ORA	L
 1102 CA1C11    	JZ	CC73
 1105 E1        	POP	H
 1106 E5        	PUSH	H
 1107 CD402F    	CALL	CCGCHAR
 110A EB        	XCHG;;
 110B 212700    	LXI	H,39
 110E CDAE2F    	CALL	CCNE
 1111 7C        	MOV	A,H
 1112 B5        	ORA	L
 1113 CA1C11    	JZ	CC73
 1116 210100    	LXI	H,1
 1119 C31F11    	JMP	CC74
                CC73:
 111C 210000    	LXI	H,0
                CC74:
 111F 7C        	MOV	A,H
 1120 B5        	ORA	L
 1121 CA4A11    	JZ	CC72
 1124 215600    	LXI	H,86
 1127 39        	DAD	SP
 1128 54        	MOV	D,H
 1129 5D        	MOV	E,L
 112A CD4D2F    	CALL	CCGINT
 112D 23        	INX	H
 112E CD8D2F    	CALL	CCPINT
 1131 2B        	DCX	H
 1132 E5        	PUSH	H
 1133 210200    	LXI	H,2
 1136 39        	DAD	SP
 1137 54        	MOV	D,H
 1138 5D        	MOV	E,L
 1139 CD4D2F    	CALL	CCGINT
 113C 23        	INX	H
 113D CD8D2F    	CALL	CCPINT
 1140 2B        	DCX	H
 1141 CD402F    	CALL	CCGCHAR
 1144 D1        	POP	D
 1145 7D        	MOV	A,L
 1146 12        	STAX	D
 1147 C3FB10    	JMP	CC71
                CC72:
 114A C36911    	JMP	CC75
                CC70:
 114D 217B11    	LXI	H,CC65+0
 1150 E5        	PUSH	H
 1151 3E01      	MVI	A,1
 1153 CD6C25    	CALL	PUTSTR
 1156 C1        	POP	B
 1157 210200    	LXI	H,2
 115A 39        	DAD	SP
 115B E5        	PUSH	H
 115C 3E01      	MVI	A,1
 115E CD6C25    	CALL	PUTSTR
 1161 C1        	POP	B
 1162 AF        	XRA	A
 1163 CDD923    	CALL	PUTNWL
 1166 C36C11    	JMP	CC67
                CC75:
                CC69:
 1169 C37610    	JMP	CC66
                CC67:
 116C 215600    	LXI	H,86
 116F 39        	DAD	SP
 1170 CD4D2F    	CALL	CCGINT
 1173 EB        	XCHG;;
 1174 215200    	LXI	H,82
 1177 39        	DAD	SP
 1178 F9        	SPHL
 1179 EB        	XCHG;;
 117A C9        	RET
 117B 4572726F72CC65:	DB	69,114,114,111,114,45,0
                DSPHLP:
 1182 C5        	PUSH	B
 1183 C5        	PUSH	B
 1184 C5        	PUSH	B
 1185 210800    	LXI	H,8
 1188 39        	DAD	SP
 1189 CD4D2F    	CALL	CCGINT
 118C CD402F    	CALL	CCGCHAR
 118F 7C        	MOV	A,H
 1190 B5        	ORA	L
 1191 C20712    	JNZ	CC77
 1194 21C914    	LXI	H,CC76+0
 1197 E5        	PUSH	H
 1198 3E01      	MVI	A,1
 119A CD6C25    	CALL	PUTSTR
 119D C1        	POP	B
 119E AF        	XRA	A
 119F CDD923    	CALL	PUTNWL
 11A2 21EF14    	LXI	H,CC76+38
 11A5 E5        	PUSH	H
 11A6 3E01      	MVI	A,1
 11A8 CD6C25    	CALL	PUTSTR
 11AB C1        	POP	B
 11AC AF        	XRA	A
 11AD CDD923    	CALL	PUTNWL
 11B0 210715    	LXI	H,CC76+62
 11B3 E5        	PUSH	H
 11B4 3E01      	MVI	A,1
 11B6 CD6C25    	CALL	PUTSTR
 11B9 C1        	POP	B
 11BA AF        	XRA	A
 11BB CDD923    	CALL	PUTNWL
 11BE 212215    	LXI	H,CC76+89
 11C1 E5        	PUSH	H
 11C2 3E01      	MVI	A,1
 11C4 CD6C25    	CALL	PUTSTR
 11C7 C1        	POP	B
 11C8 AF        	XRA	A
 11C9 CDD923    	CALL	PUTNWL
 11CC 213D15    	LXI	H,CC76+116
 11CF E5        	PUSH	H
 11D0 3E01      	MVI	A,1
 11D2 CD6C25    	CALL	PUTSTR
 11D5 C1        	POP	B
 11D6 AF        	XRA	A
 11D7 CDD923    	CALL	PUTNWL
 11DA 215915    	LXI	H,CC76+144
 11DD E5        	PUSH	H
 11DE 3E01      	MVI	A,1
 11E0 CD6C25    	CALL	PUTSTR
 11E3 C1        	POP	B
 11E4 AF        	XRA	A
 11E5 CDD923    	CALL	PUTNWL
 11E8 217815    	LXI	H,CC76+175
 11EB E5        	PUSH	H
 11EC 3E01      	MVI	A,1
 11EE CD6C25    	CALL	PUTSTR
 11F1 C1        	POP	B
 11F2 AF        	XRA	A
 11F3 CDD923    	CALL	PUTNWL
 11F6 219415    	LXI	H,CC76+203
 11F9 E5        	PUSH	H
 11FA 3E01      	MVI	A,1
 11FC CD6C25    	CALL	PUTSTR
 11FF C1        	POP	B
 1200 AF        	XRA	A
 1201 CDD923    	CALL	PUTNWL
 1204 C3C514    	JMP	CC78
                CC77:
                CC79:
 1207 210800    	LXI	H,8
 120A 39        	DAD	SP
 120B CD4D2F    	CALL	CCGINT
 120E CD402F    	CALL	CCGCHAR
 1211 EB        	XCHG;;
 1212 210000    	LXI	H,0
 1215 CDAE2F    	CALL	CCNE
 1218 7C        	MOV	A,H
 1219 B5        	ORA	L
 121A CA5D12    	JZ	CC81
 121D 210800    	LXI	H,8
 1220 39        	DAD	SP
 1221 CD4D2F    	CALL	CCGINT
 1224 CD402F    	CALL	CCGCHAR
 1227 E5        	PUSH	H
 1228 3E01      	MVI	A,1
 122A CD6C1C    	CALL	ISSPACE
 122D C1        	POP	B
 122E 7C        	MOV	A,H
 122F B5        	ORA	L
 1230 C24F12    	JNZ	CC82
 1233 210800    	LXI	H,8
 1236 39        	DAD	SP
 1237 CD4D2F    	CALL	CCGINT
 123A CD402F    	CALL	CCGCHAR
 123D EB        	XCHG;;
 123E 212C00    	LXI	H,44
 1241 CDA82F    	CALL	CCEQ
 1244 7C        	MOV	A,H
 1245 B5        	ORA	L
 1246 C24F12    	JNZ	CC82
 1249 210000    	LXI	H,0
 124C C35212    	JMP	CC83
                CC82:
 124F 210100    	LXI	H,1
                CC83:
 1252 7C        	MOV	A,H
 1253 B5        	ORA	L
 1254 CA5D12    	JZ	CC81
 1257 210100    	LXI	H,1
 125A C36012    	JMP	CC84
                CC81:
 125D 210000    	LXI	H,0
                CC84:
 1260 7C        	MOV	A,H
 1261 B5        	ORA	L
 1262 CA7612    	JZ	CC80
 1265 210800    	LXI	H,8
 1268 39        	DAD	SP
 1269 54        	MOV	D,H
 126A 5D        	MOV	E,L
 126B CD4D2F    	CALL	CCGINT
 126E 23        	INX	H
 126F CD8D2F    	CALL	CCPINT
 1272 2B        	DCX	H
 1273 C30712    	JMP	CC79
                CC80:
 1276 210400    	LXI	H,4
 1279 39        	DAD	SP
 127A EB        	XCHG;;
 127B 210800    	LXI	H,08
 127E 39        	DAD	SP
 127F CD4D2F    	CALL	CCGINT
 1282 CD8D2F    	CALL	CCPINT
                CC85:
 1285 210400    	LXI	H,4
 1288 39        	DAD	SP
 1289 CD4D2F    	CALL	CCGINT
 128C CD402F    	CALL	CCGCHAR
 128F EB        	XCHG;;
 1290 210000    	LXI	H,0
 1293 CDAE2F    	CALL	CCNE
 1296 7C        	MOV	A,H
 1297 B5        	ORA	L
 1298 CAD012    	JZ	CC87
 129B 210400    	LXI	H,4
 129E 39        	DAD	SP
 129F CD4D2F    	CALL	CCGINT
 12A2 CD402F    	CALL	CCGCHAR
 12A5 E5        	PUSH	H
 12A6 3E01      	MVI	A,1
 12A8 CD6C1C    	CALL	ISSPACE
 12AB C1        	POP	B
 12AC CD1730    	CALL	CCLNEG
 12AF 7C        	MOV	A,H
 12B0 B5        	ORA	L
 12B1 CAD012    	JZ	CC87
 12B4 210400    	LXI	H,4
 12B7 39        	DAD	SP
 12B8 CD4D2F    	CALL	CCGINT
 12BB CD402F    	CALL	CCGCHAR
 12BE EB        	XCHG;;
 12BF 212C00    	LXI	H,44
 12C2 CDAE2F    	CALL	CCNE
 12C5 7C        	MOV	A,H
 12C6 B5        	ORA	L
 12C7 CAD012    	JZ	CC87
 12CA 210100    	LXI	H,1
 12CD C3D312    	JMP	CC88
                CC87:
 12D0 210000    	LXI	H,0
                CC88:
 12D3 7C        	MOV	A,H
 12D4 B5        	ORA	L
 12D5 CAE912    	JZ	CC86
 12D8 210400    	LXI	H,4
 12DB 39        	DAD	SP
 12DC 54        	MOV	D,H
 12DD 5D        	MOV	E,L
 12DE CD4D2F    	CALL	CCGINT
 12E1 23        	INX	H
 12E2 CD8D2F    	CALL	CCPINT
 12E5 2B        	DCX	H
 12E6 C38512    	JMP	CC85
                CC86:
 12E9 210400    	LXI	H,4
 12EC 39        	DAD	SP
 12ED CD4D2F    	CALL	CCGINT
 12F0 EB        	XCHG;;
 12F1 210000    	LXI	H,0
 12F4 7D        	MOV	A,L
 12F5 12        	STAX	D
 12F6 210000    	LXI	H,0
 12F9 39        	DAD	SP
 12FA EB        	XCHG;;
 12FB 210000    	LXI	H,0
 12FE CD8D2F    	CALL	CCPINT
 1301 210200    	LXI	H,2
 1304 39        	DAD	SP
 1305 EB        	XCHG;;
 1306 210000    	LXI	H,0
 1309 CD8D2F    	CALL	CCPINT
                CC91:
 130C C1        	POP	B
 130D D1        	POP	D
 130E D5        	PUSH	D
 130F C5        	PUSH	B
 1310 21FF00    	LXI	H,255
 1313 CDBB2F    	CALL	CCLE
 1316 7C        	MOV	A,H
 1317 B5        	ORA	L
 1318 CAA214    	JZ	CC90
 131B C32F13    	JMP	CC92
                CC89:
 131E 210200    	LXI	H,2
 1321 39        	DAD	SP
 1322 54        	MOV	D,H
 1323 5D        	MOV	E,L
 1324 CD4D2F    	CALL	CCGINT
 1327 23        	INX	H
 1328 CD8D2F    	CALL	CCPINT
 132B 2B        	DCX	H
 132C C30C13    	JMP	CC91
                CC92:
 132F 210800    	LXI	H,8
 1332 39        	DAD	SP
 1333 CD4D2F    	CALL	CCGINT
 1336 E5        	PUSH	H
 1337 210400    	LXI	H,4
 133A 39        	DAD	SP
 133B CD4D2F    	CALL	CCGINT
 133E E5        	PUSH	H
 133F 3E01      	MVI	A,1
 1341 CD582E    	CALL	OPECOD
 1344 C1        	POP	B
 1345 E5        	PUSH	H
 1346 3E02      	MVI	A,2
 1348 CDD11E    	CALL	STRCMP
 134B C1        	POP	B
 134C C1        	POP	B
 134D 7C        	MOV	A,H
 134E B5        	ORA	L
 134F C29F14    	JNZ	CC93
 1352 21B415    	LXI	H,CC76+235
 1355 E5        	PUSH	H
 1356 3E01      	MVI	A,1
 1358 CD6C25    	CALL	PUTSTR
 135B C1        	POP	B
 135C C1        	POP	B
 135D E1        	POP	H
 135E E5        	PUSH	H
 135F C5        	PUSH	B
 1360 E5        	PUSH	H
 1361 3E01      	MVI	A,1
 1363 CD582E    	CALL	OPECOD
 1366 C1        	POP	B
 1367 E5        	PUSH	H
 1368 3E01      	MVI	A,1
 136A CD6C25    	CALL	PUTSTR
 136D C1        	POP	B
 136E C1        	POP	B
 136F E1        	POP	H
 1370 E5        	PUSH	H
 1371 C5        	PUSH	B
 1372 E5        	PUSH	H
 1373 3E01      	MVI	A,1
 1375 CD692E    	CALL	OPERD1
 1378 C1        	POP	B
 1379 CD4D2F    	CALL	CCGINT
 137C EB        	XCHG;;
 137D 210100    	LXI	H,1
 1380 CDA82F    	CALL	CCEQ
 1383 7C        	MOV	A,H
 1384 B5        	ORA	L
 1385 CA9F13    	JZ	CC94
 1388 210900    	LXI	H,9
 138B E5        	PUSH	H
 138C 3E01      	MVI	A,1
 138E CDBB26    	CALL	PUTCHR
 1391 C1        	POP	B
 1392 21BB15    	LXI	H,CC76+242
 1395 E5        	PUSH	H
 1396 3E01      	MVI	A,1
 1398 CD6C25    	CALL	PUTSTR
 139B C1        	POP	B
 139C C3FF13    	JMP	CC95
                CC94:
 139F C1        	POP	B
 13A0 E1        	POP	H
 13A1 E5        	PUSH	H
 13A2 C5        	PUSH	B
 13A3 E5        	PUSH	H
 13A4 3E01      	MVI	A,1
 13A6 CD692E    	CALL	OPERD1
 13A9 C1        	POP	B
 13AA CD4D2F    	CALL	CCGINT
 13AD EB        	XCHG;;
 13AE 210200    	LXI	H,2
 13B1 CDA82F    	CALL	CCEQ
 13B4 7C        	MOV	A,H
 13B5 B5        	ORA	L
 13B6 CAD013    	JZ	CC96
 13B9 210900    	LXI	H,9
 13BC E5        	PUSH	H
 13BD 3E01      	MVI	A,1
 13BF CDBB26    	CALL	PUTCHR
 13C2 C1        	POP	B
 13C3 21BE15    	LXI	H,CC76+245
 13C6 E5        	PUSH	H
 13C7 3E01      	MVI	A,1
 13C9 CD6C25    	CALL	PUTSTR
 13CC C1        	POP	B
 13CD C3FF13    	JMP	CC97
                CC96:
 13D0 C1        	POP	B
 13D1 E1        	POP	H
 13D2 E5        	PUSH	H
 13D3 C5        	PUSH	B
 13D4 E5        	PUSH	H
 13D5 3E01      	MVI	A,1
 13D7 CD692E    	CALL	OPERD1
 13DA C1        	POP	B
 13DB CD4D2F    	CALL	CCGINT
 13DE 7C        	MOV	A,H
 13DF B5        	ORA	L
 13E0 CAFF13    	JZ	CC98
 13E3 210900    	LXI	H,9
 13E6 E5        	PUSH	H
 13E7 3E01      	MVI	A,1
 13E9 CDBB26    	CALL	PUTCHR
 13EC C1        	POP	B
 13ED C1        	POP	B
 13EE E1        	POP	H
 13EF E5        	PUSH	H
 13F0 C5        	PUSH	B
 13F1 E5        	PUSH	H
 13F2 3E01      	MVI	A,1
 13F4 CD692E    	CALL	OPERD1
 13F7 C1        	POP	B
 13F8 E5        	PUSH	H
 13F9 3E01      	MVI	A,1
 13FB CD6C25    	CALL	PUTSTR
 13FE C1        	POP	B
                CC98:
                CC97:
                CC95:
 13FF C1        	POP	B
 1400 E1        	POP	H
 1401 E5        	PUSH	H
 1402 C5        	PUSH	B
 1403 E5        	PUSH	H
 1404 3E01      	MVI	A,1
 1406 CD7A2E    	CALL	OPERD2
 1409 C1        	POP	B
 140A CD4D2F    	CALL	CCGINT
 140D EB        	XCHG;;
 140E 210100    	LXI	H,1
 1411 CDA82F    	CALL	CCEQ
 1414 7C        	MOV	A,H
 1415 B5        	ORA	L
 1416 CA3014    	JZ	CC99
 1419 212C00    	LXI	H,44
 141C E5        	PUSH	H
 141D 3E01      	MVI	A,1
 141F CDBB26    	CALL	PUTCHR
 1422 C1        	POP	B
 1423 21C315    	LXI	H,CC76+250
 1426 E5        	PUSH	H
 1427 3E01      	MVI	A,1
 1429 CD6C25    	CALL	PUTSTR
 142C C1        	POP	B
 142D C39014    	JMP	CC100
                CC99:
 1430 C1        	POP	B
 1431 E1        	POP	H
 1432 E5        	PUSH	H
 1433 C5        	PUSH	B
 1434 E5        	PUSH	H
 1435 3E01      	MVI	A,1
 1437 CD7A2E    	CALL	OPERD2
 143A C1        	POP	B
 143B CD4D2F    	CALL	CCGINT
 143E EB        	XCHG;;
 143F 210200    	LXI	H,2
 1442 CDA82F    	CALL	CCEQ
 1445 7C        	MOV	A,H
 1446 B5        	ORA	L
 1447 CA6114    	JZ	CC101
 144A 212C00    	LXI	H,44
 144D E5        	PUSH	H
 144E 3E01      	MVI	A,1
 1450 CDBB26    	CALL	PUTCHR
 1453 C1        	POP	B
 1454 21C615    	LXI	H,CC76+253
 1457 E5        	PUSH	H
 1458 3E01      	MVI	A,1
 145A CD6C25    	CALL	PUTSTR
 145D C1        	POP	B
 145E C39014    	JMP	CC102
                CC101:
 1461 C1        	POP	B
 1462 E1        	POP	H
 1463 E5        	PUSH	H
 1464 C5        	PUSH	B
 1465 E5        	PUSH	H
 1466 3E01      	MVI	A,1
 1468 CD7A2E    	CALL	OPERD2
 146B C1        	POP	B
 146C CD4D2F    	CALL	CCGINT
 146F 7C        	MOV	A,H
 1470 B5        	ORA	L
 1471 CA9014    	JZ	CC103
 1474 212C00    	LXI	H,44
 1477 E5        	PUSH	H
 1478 3E01      	MVI	A,1
 147A CDBB26    	CALL	PUTCHR
 147D C1        	POP	B
 147E C1        	POP	B
 147F E1        	POP	H
 1480 E5        	PUSH	H
 1481 C5        	PUSH	B
 1482 E5        	PUSH	H
 1483 3E01      	MVI	A,1
 1485 CD7A2E    	CALL	OPERD2
 1488 C1        	POP	B
 1489 E5        	PUSH	H
 148A 3E01      	MVI	A,1
 148C CD6C25    	CALL	PUTSTR
 148F C1        	POP	B
                CC103:
                CC102:
                CC100:
 1490 AF        	XRA	A
 1491 CDD923    	CALL	PUTNWL
 1494 210000    	LXI	H,0
 1497 39        	DAD	SP
 1498 EB        	XCHG;;
 1499 210100    	LXI	H,1
 149C CD8D2F    	CALL	CCPINT
                CC93:
 149F C31E13    	JMP	CC89
                CC90:
 14A2 E1        	POP	H
 14A3 E5        	PUSH	H
 14A4 7C        	MOV	A,H
 14A5 B5        	ORA	L
 14A6 C2C514    	JNZ	CC104
 14A9 21CB15    	LXI	H,CC76+258
 14AC E5        	PUSH	H
 14AD 3E01      	MVI	A,1
 14AF CD6C25    	CALL	PUTSTR
 14B2 C1        	POP	B
 14B3 210800    	LXI	H,8
 14B6 39        	DAD	SP
 14B7 CD4D2F    	CALL	CCGINT
 14BA E5        	PUSH	H
 14BB 3E01      	MVI	A,1
 14BD CD6C25    	CALL	PUTSTR
 14C0 C1        	POP	B
 14C1 AF        	XRA	A
 14C2 CDD923    	CALL	PUTNWL
                CC104:
                CC78:
 14C5 C1        	POP	B
 14C6 C1        	POP	B
 14C7 C1        	POP	B
 14C8 C9        	RET
 14C9 2020202020CC76:	DB	32,32,32,32,32,32,120,120,120,120
 14D3 2020202020	DB	32,32,32,32,32,67,104,97,110,103
 14DD 6520637572	DB	101,32,99,117,114,114,101,110,116,32
 14E7 6164647265	DB	97,100,100,114,101,115,115,0,32,32
 14F1 202020206D	DB	32,32,32,32,109,110,101,109,111,110
 14FB 6963204173	DB	105,99,32,65,115,115,101,109,98,108
 1505 6500202020	DB	101,0,32,32,32,32,32,32,76,73
 150F 5354202020	DB	83,84,32,32,32,32,32,68,105,115
 1519 617373656D	DB	97,115,115,101,109,98,108,101,0,32
 1523 2020202020	DB	32,32,32,32,32,68,69,70,73,78
 152D 4520202044	DB	69,32,32,32,68,101,102,105,110,101
 1537 2064617461	DB	32,100,97,116,97,0,32,32,32,32
 1541 202044554D	DB	32,32,68,85,77,80,32,32,32,32
 154B 2044697370	DB	32,68,105,115,112,108,97,121,32,100
 1555 6174610020	DB	97,116,97,0,32,32,32,32,32,32
 155F 4558454320	DB	69,88,69,67,32,32,32,32,32,69
 1569 7865637574	DB	120,101,99,117,116,101,32,112,114,111
 1573 6772616D00	DB	103,114,97,109,0,32,32,32,32,32
 157D 2048454C50	DB	32,72,69,76,80,32,32,32,32,32
 1587 446973706C	DB	68,105,115,112,108,97,121,32,104,101
 1591 6C70002020	DB	108,112,0,32,32,32,32,32,32,83
 159B 595354454D	DB	89,83,84,69,77,32,32,32,82,101
 15A5 7475726E20	DB	116,117,114,110,32,116,111,32,115,121
 15AF 7374656D00	DB	115,116,101,109,0,32,32,32,32,32
 15B9 2000787800	DB	32,0,120,120,0,120,120,120,120,0
 15C3 7878007878	DB	120,120,0,120,120,120,120,0,69,82
 15CD 524F522D00	DB	82,79,82,45,0
                ASMLIN:
 15D2 3B        	DCX	SP
 15D3 C5        	PUSH	B
 15D4 C5        	PUSH	B
 15D5 210400    	LXI	H,4
 15D8 39        	DAD	SP
 15D9 EB        	XCHG;;
 15DA 21FF00    	LXI	H,255
 15DD 7D        	MOV	A,L
 15DE 12        	STAX	D
 15DF 210000    	LXI	H,0
 15E2 39        	DAD	SP
 15E3 EB        	XCHG;;
 15E4 210000    	LXI	H,0
 15E7 CD8D2F    	CALL	CCPINT
                CC106:
 15EA 210400    	LXI	H,4
 15ED 39        	DAD	SP
 15EE 54        	MOV	D,H
 15EF 5D        	MOV	E,L
 15F0 CD402F    	CALL	CCGCHAR
 15F3 2B        	DCX	H
 15F4 7D        	MOV	A,L
 15F5 12        	STAX	D
 15F6 23        	INX	H
 15F7 7C        	MOV	A,H
 15F8 B5        	ORA	L
 15F9 CA0F16    	JZ	CC108
 15FC D1        	POP	D
 15FD D5        	PUSH	D
 15FE 210000    	LXI	H,0
 1601 CDA82F    	CALL	CCEQ
 1604 7C        	MOV	A,H
 1605 B5        	ORA	L
 1606 CA0F16    	JZ	CC108
 1609 210100    	LXI	H,1
 160C C31216    	JMP	CC109
                CC108:
 160F 210000    	LXI	H,0
                CC109:
 1612 7C        	MOV	A,H
 1613 B5        	ORA	L
 1614 CA3417    	JZ	CC107
 1617 210B00    	LXI	H,11
 161A 39        	DAD	SP
 161B CD4D2F    	CALL	CCGINT
 161E E5        	PUSH	H
 161F 210600    	LXI	H,6
 1622 39        	DAD	SP
 1623 CD402F    	CALL	CCGCHAR
 1626 E5        	PUSH	H
 1627 3E01      	MVI	A,1
 1629 CD582E    	CALL	OPECOD
 162C C1        	POP	B
 162D E5        	PUSH	H
 162E 3E02      	MVI	A,2
 1630 CDD11E    	CALL	STRCMP
 1633 C1        	POP	B
 1634 C1        	POP	B
 1635 7C        	MOV	A,H
 1636 B5        	ORA	L
 1637 C23117    	JNZ	CC110
 163A 210900    	LXI	H,9
 163D 39        	DAD	SP
 163E CD4D2F    	CALL	CCGINT
 1641 E5        	PUSH	H
 1642 210600    	LXI	H,6
 1645 39        	DAD	SP
 1646 CD402F    	CALL	CCGCHAR
 1649 E5        	PUSH	H
 164A 3E01      	MVI	A,1
 164C CD692E    	CALL	OPERD1
 164F C1        	POP	B
 1650 E5        	PUSH	H
 1651 3E02      	MVI	A,2
 1653 CDD11E    	CALL	STRCMP
 1656 C1        	POP	B
 1657 C1        	POP	B
 1658 EB        	XCHG;;
 1659 210000    	LXI	H,0
 165C CDA82F    	CALL	CCEQ
 165F 7C        	MOV	A,H
 1660 B5        	ORA	L
 1661 C2A816    	JNZ	CC112
 1664 210900    	LXI	H,9
 1667 39        	DAD	SP
 1668 CD4D2F    	CALL	CCGINT
 166B E5        	PUSH	H
 166C 3E01      	MVI	A,1
 166E CD841D    	CALL	ISXSTR
 1671 C1        	POP	B
 1672 7C        	MOV	A,H
 1673 B5        	ORA	L
 1674 CA9A16    	JZ	CC113
 1677 210400    	LXI	H,4
 167A 39        	DAD	SP
 167B CD402F    	CALL	CCGCHAR
 167E E5        	PUSH	H
 167F 3E01      	MVI	A,1
 1681 CD692E    	CALL	OPERD1
 1684 C1        	POP	B
 1685 CD4D2F    	CALL	CCGINT
 1688 EB        	XCHG;;
 1689 210200    	LXI	H,2
 168C CDBB2F    	CALL	CCLE
 168F 7C        	MOV	A,H
 1690 B5        	ORA	L
 1691 CA9A16    	JZ	CC113
 1694 210100    	LXI	H,1
 1697 C39D16    	JMP	CC114
                CC113:
 169A 210000    	LXI	H,0
                CC114:
 169D 7C        	MOV	A,H
 169E B5        	ORA	L
 169F C2A816    	JNZ	CC112
 16A2 210000    	LXI	H,0
 16A5 C3AB16    	JMP	CC115
                CC112:
 16A8 210100    	LXI	H,1
                CC115:
 16AB 7C        	MOV	A,H
 16AC B5        	ORA	L
 16AD CA3117    	JZ	CC111
 16B0 210700    	LXI	H,7
 16B3 39        	DAD	SP
 16B4 CD4D2F    	CALL	CCGINT
 16B7 E5        	PUSH	H
 16B8 210600    	LXI	H,6
 16BB 39        	DAD	SP
 16BC CD402F    	CALL	CCGCHAR
 16BF E5        	PUSH	H
 16C0 3E01      	MVI	A,1
 16C2 CD7A2E    	CALL	OPERD2
 16C5 C1        	POP	B
 16C6 E5        	PUSH	H
 16C7 3E02      	MVI	A,2
 16C9 CDD11E    	CALL	STRCMP
 16CC C1        	POP	B
 16CD C1        	POP	B
 16CE EB        	XCHG;;
 16CF 210000    	LXI	H,0
 16D2 CDA82F    	CALL	CCEQ
 16D5 7C        	MOV	A,H
 16D6 B5        	ORA	L
 16D7 C21E17    	JNZ	CC117
 16DA 210700    	LXI	H,7
 16DD 39        	DAD	SP
 16DE CD4D2F    	CALL	CCGINT
 16E1 E5        	PUSH	H
 16E2 3E01      	MVI	A,1
 16E4 CD841D    	CALL	ISXSTR
 16E7 C1        	POP	B
 16E8 7C        	MOV	A,H
 16E9 B5        	ORA	L
 16EA CA1017    	JZ	CC118
 16ED 210400    	LXI	H,4
 16F0 39        	DAD	SP
 16F1 CD402F    	CALL	CCGCHAR
 16F4 E5        	PUSH	H
 16F5 3E01      	MVI	A,1
 16F7 CD7A2E    	CALL	OPERD2
 16FA C1        	POP	B
 16FB CD4D2F    	CALL	CCGINT
 16FE EB        	XCHG;;
 16FF 210200    	LXI	H,2
 1702 CDBB2F    	CALL	CCLE
 1705 7C        	MOV	A,H
 1706 B5        	ORA	L
 1707 CA1017    	JZ	CC118
 170A 210100    	LXI	H,1
 170D C31317    	JMP	CC119
                CC118:
 1710 210000    	LXI	H,0
                CC119:
 1713 7C        	MOV	A,H
 1714 B5        	ORA	L
 1715 C21E17    	JNZ	CC117
 1718 210000    	LXI	H,0
 171B C32117    	JMP	CC120
                CC117:
 171E 210100    	LXI	H,1
                CC120:
 1721 7C        	MOV	A,H
 1722 B5        	ORA	L
 1723 CA3117    	JZ	CC116
 1726 210000    	LXI	H,0
 1729 39        	DAD	SP
 172A EB        	XCHG;;
 172B 210100    	LXI	H,1
 172E CD8D2F    	CALL	CCPINT
                CC116:
                CC111:
                CC110:
 1731 C3EA15    	JMP	CC106
                CC107:
 1734 E1        	POP	H
 1735 E5        	PUSH	H
 1736 7C        	MOV	A,H
 1737 B5        	ORA	L
 1738 C2B017    	JNZ	CC121
 173B 210C19    	LXI	H,CC105+0
 173E E5        	PUSH	H
 173F 3E01      	MVI	A,1
 1741 CD6C25    	CALL	PUTSTR
 1744 C1        	POP	B
 1745 210B00    	LXI	H,11
 1748 39        	DAD	SP
 1749 CD4D2F    	CALL	CCGINT
 174C E5        	PUSH	H
 174D 3E01      	MVI	A,1
 174F CD6C25    	CALL	PUTSTR
 1752 C1        	POP	B
 1753 212000    	LXI	H,32
 1756 E5        	PUSH	H
 1757 3E01      	MVI	A,1
 1759 CDBB26    	CALL	PUTCHR
 175C C1        	POP	B
 175D 210900    	LXI	H,9
 1760 39        	DAD	SP
 1761 CD4D2F    	CALL	CCGINT
 1764 CD402F    	CALL	CCGCHAR
 1767 7C        	MOV	A,H
 1768 B5        	ORA	L
 1769 CA7A17    	JZ	CC122
 176C 210900    	LXI	H,9
 176F 39        	DAD	SP
 1770 CD4D2F    	CALL	CCGINT
 1773 E5        	PUSH	H
 1774 3E01      	MVI	A,1
 1776 CD6C25    	CALL	PUTSTR
 1779 C1        	POP	B
                CC122:
 177A 210700    	LXI	H,7
 177D 39        	DAD	SP
 177E CD4D2F    	CALL	CCGINT
 1781 CD402F    	CALL	CCGCHAR
 1784 7C        	MOV	A,H
 1785 B5        	ORA	L
 1786 CAA117    	JZ	CC123
 1789 212C00    	LXI	H,44
 178C E5        	PUSH	H
 178D 3E01      	MVI	A,1
 178F CDBB26    	CALL	PUTCHR
 1792 C1        	POP	B
 1793 210700    	LXI	H,7
 1796 39        	DAD	SP
 1797 CD4D2F    	CALL	CCGINT
 179A E5        	PUSH	H
 179B 3E01      	MVI	A,1
 179D CD6C25    	CALL	PUTSTR
 17A0 C1        	POP	B
                CC123:
 17A1 AF        	XRA	A
 17A2 CDD923    	CALL	PUTNWL
 17A5 210D00    	LXI	H,13
 17A8 39        	DAD	SP
 17A9 CD4D2F    	CALL	CCGINT
 17AC 33        	INX	SP
 17AD C1        	POP	B
 17AE C1        	POP	B
 17AF C9        	RET
                CC121:
 17B0 210400    	LXI	H,4
 17B3 39        	DAD	SP
 17B4 54        	MOV	D,H
 17B5 5D        	MOV	E,L
 17B6 CD402F    	CALL	CCGCHAR
 17B9 23        	INX	H
 17BA 7D        	MOV	A,L
 17BB 12        	STAX	D
 17BC 2B        	DCX	H
 17BD 210D00    	LXI	H,13
 17C0 39        	DAD	SP
 17C1 54        	MOV	D,H
 17C2 5D        	MOV	E,L
 17C3 CD4D2F    	CALL	CCGINT
 17C6 23        	INX	H
 17C7 CD8D2F    	CALL	CCPINT
 17CA 2B        	DCX	H
 17CB EB        	XCHG;;
 17CC 210400    	LXI	H,4
 17CF 39        	DAD	SP
 17D0 CD402F    	CALL	CCGCHAR
 17D3 7D        	MOV	A,L
 17D4 12        	STAX	D
 17D5 210200    	LXI	H,2
 17D8 39        	DAD	SP
 17D9 EB        	XCHG;;
 17DA 210D00    	LXI	H,13
 17DD 39        	DAD	SP
 17DE CD4D2F    	CALL	CCGINT
 17E1 CD8D2F    	CALL	CCPINT
 17E4 210400    	LXI	H,4
 17E7 39        	DAD	SP
 17E8 CD402F    	CALL	CCGCHAR
 17EB E5        	PUSH	H
 17EC 3E01      	MVI	A,1
 17EE CD692E    	CALL	OPERD1
 17F1 C1        	POP	B
 17F2 CD4D2F    	CALL	CCGINT
 17F5 EB        	XCHG;;
 17F6 210100    	LXI	H,1
 17F9 CDA82F    	CALL	CCEQ
 17FC 7C        	MOV	A,H
 17FD B5        	ORA	L
 17FE CA2D18    	JZ	CC124
 1801 210D00    	LXI	H,13
 1804 39        	DAD	SP
 1805 CD4D2F    	CALL	CCGINT
 1808 E5        	PUSH	H
 1809 210B00    	LXI	H,11
 180C 39        	DAD	SP
 180D CD4D2F    	CALL	CCGINT
 1810 E5        	PUSH	H
 1811 3E01      	MVI	A,1
 1813 CD6621    	CALL	XTOB
 1816 C1        	POP	B
 1817 D1        	POP	D
 1818 7D        	MOV	A,L
 1819 12        	STAX	D
 181A 210D00    	LXI	H,13
 181D 39        	DAD	SP
 181E E5        	PUSH	H
 181F CD4D2F    	CALL	CCGINT
 1822 110100    	LXI	D,1
 1825 19        	DAD	D
 1826 D1        	POP	D
 1827 CD8D2F    	CALL	CCPINT
 182A C30119    	JMP	CC125
                CC124:
 182D 210400    	LXI	H,4
 1830 39        	DAD	SP
 1831 CD402F    	CALL	CCGCHAR
 1834 E5        	PUSH	H
 1835 3E01      	MVI	A,1
 1837 CD7A2E    	CALL	OPERD2
 183A C1        	POP	B
 183B CD4D2F    	CALL	CCGINT
 183E EB        	XCHG;;
 183F 210100    	LXI	H,1
 1842 CDA82F    	CALL	CCEQ
 1845 7C        	MOV	A,H
 1846 B5        	ORA	L
 1847 CA7618    	JZ	CC126
 184A 210D00    	LXI	H,13
 184D 39        	DAD	SP
 184E CD4D2F    	CALL	CCGINT
 1851 E5        	PUSH	H
 1852 210900    	LXI	H,9
 1855 39        	DAD	SP
 1856 CD4D2F    	CALL	CCGINT
 1859 E5        	PUSH	H
 185A 3E01      	MVI	A,1
 185C CD6621    	CALL	XTOB
 185F C1        	POP	B
 1860 D1        	POP	D
 1861 7D        	MOV	A,L
 1862 12        	STAX	D
 1863 210D00    	LXI	H,13
 1866 39        	DAD	SP
 1867 E5        	PUSH	H
 1868 CD4D2F    	CALL	CCGINT
 186B 110100    	LXI	D,1
 186E 19        	DAD	D
 186F D1        	POP	D
 1870 CD8D2F    	CALL	CCPINT
 1873 C30119    	JMP	CC127
                CC126:
 1876 210400    	LXI	H,4
 1879 39        	DAD	SP
 187A CD402F    	CALL	CCGCHAR
 187D E5        	PUSH	H
 187E 3E01      	MVI	A,1
 1880 CD692E    	CALL	OPERD1
 1883 C1        	POP	B
 1884 CD4D2F    	CALL	CCGINT
 1887 EB        	XCHG;;
 1888 210200    	LXI	H,2
 188B CDA82F    	CALL	CCEQ
 188E 7C        	MOV	A,H
 188F B5        	ORA	L
 1890 CABD18    	JZ	CC128
 1893 C1        	POP	B
 1894 E1        	POP	H
 1895 E5        	PUSH	H
 1896 C5        	PUSH	B
 1897 E5        	PUSH	H
 1898 210B00    	LXI	H,11
 189B 39        	DAD	SP
 189C CD4D2F    	CALL	CCGINT
 189F E5        	PUSH	H
 18A0 3E01      	MVI	A,1
 18A2 CD9F22    	CALL	XTOI
 18A5 C1        	POP	B
 18A6 D1        	POP	D
 18A7 CD8D2F    	CALL	CCPINT
 18AA 210D00    	LXI	H,13
 18AD 39        	DAD	SP
 18AE E5        	PUSH	H
 18AF CD4D2F    	CALL	CCGINT
 18B2 110200    	LXI	D,2
 18B5 19        	DAD	D
 18B6 D1        	POP	D
 18B7 CD8D2F    	CALL	CCPINT
 18BA C30119    	JMP	CC129
                CC128:
 18BD 210400    	LXI	H,4
 18C0 39        	DAD	SP
 18C1 CD402F    	CALL	CCGCHAR
 18C4 E5        	PUSH	H
 18C5 3E01      	MVI	A,1
 18C7 CD7A2E    	CALL	OPERD2
 18CA C1        	POP	B
 18CB CD4D2F    	CALL	CCGINT
 18CE EB        	XCHG;;
 18CF 210200    	LXI	H,2
 18D2 CDA82F    	CALL	CCEQ
 18D5 7C        	MOV	A,H
 18D6 B5        	ORA	L
 18D7 CA0119    	JZ	CC130
 18DA C1        	POP	B
 18DB E1        	POP	H
 18DC E5        	PUSH	H
 18DD C5        	PUSH	B
 18DE E5        	PUSH	H
 18DF 210900    	LXI	H,9
 18E2 39        	DAD	SP
 18E3 CD4D2F    	CALL	CCGINT
 18E6 E5        	PUSH	H
 18E7 3E01      	MVI	A,1
 18E9 CD9F22    	CALL	XTOI
 18EC C1        	POP	B
 18ED D1        	POP	D
 18EE CD8D2F    	CALL	CCPINT
 18F1 210D00    	LXI	H,13
 18F4 39        	DAD	SP
 18F5 E5        	PUSH	H
 18F6 CD4D2F    	CALL	CCGINT
 18F9 110200    	LXI	D,2
 18FC 19        	DAD	D
 18FD D1        	POP	D
 18FE CD8D2F    	CALL	CCPINT
                CC130:
                CC129:
                CC127:
                CC125:
 1901 210D00    	LXI	H,13
 1904 39        	DAD	SP
 1905 CD4D2F    	CALL	CCGINT
 1908 33        	INX	SP
 1909 C1        	POP	B
 190A C1        	POP	B
 190B C9        	RET
 190C 4552524F52CC105:	DB	69,82,82,79,82,45,0
                ASMPMT:
 1913 215B00    	LXI	H,91
 1916 E5        	PUSH	H
 1917 3E01      	MVI	A,1
 1919 CDBB26    	CALL	PUTCHR
 191C C1        	POP	B
 191D C1        	POP	B
 191E E1        	POP	H
 191F E5        	PUSH	H
 1920 C5        	PUSH	B
 1921 E5        	PUSH	H
 1922 3E01      	MVI	A,1
 1924 CDE723    	CALL	PUTWRD
 1927 C1        	POP	B
 1928 215D00    	LXI	H,93
 192B E5        	PUSH	H
 192C 3E01      	MVI	A,1
 192E CDBB26    	CALL	PUTCHR
 1931 C1        	POP	B
 1932 C9        	RET
                SETCMD:
                CC133:
 1933 210600    	LXI	H,6
 1936 39        	DAD	SP
 1937 CD4D2F    	CALL	CCGINT
 193A CD402F    	CALL	CCGCHAR
 193D EB        	XCHG;;
 193E 210000    	LXI	H,0
 1941 CDAE2F    	CALL	CCNE
 1944 7C        	MOV	A,H
 1945 B5        	ORA	L
 1946 CA8919    	JZ	CC135
 1949 210600    	LXI	H,6
 194C 39        	DAD	SP
 194D CD4D2F    	CALL	CCGINT
 1950 CD402F    	CALL	CCGCHAR
 1953 E5        	PUSH	H
 1954 3E01      	MVI	A,1
 1956 CD6C1C    	CALL	ISSPACE
 1959 C1        	POP	B
 195A 7C        	MOV	A,H
 195B B5        	ORA	L
 195C C27B19    	JNZ	CC136
 195F 210600    	LXI	H,6
 1962 39        	DAD	SP
 1963 CD4D2F    	CALL	CCGINT
 1966 CD402F    	CALL	CCGCHAR
 1969 EB        	XCHG;;
 196A 212C00    	LXI	H,44
 196D CDA82F    	CALL	CCEQ
 1970 7C        	MOV	A,H
 1971 B5        	ORA	L
 1972 C27B19    	JNZ	CC136
 1975 210000    	LXI	H,0
 1978 C37E19    	JMP	CC137
                CC136:
 197B 210100    	LXI	H,1
                CC137:
 197E 7C        	MOV	A,H
 197F B5        	ORA	L
 1980 CA8919    	JZ	CC135
 1983 210100    	LXI	H,1
 1986 C38C19    	JMP	CC138
                CC135:
 1989 210000    	LXI	H,0
                CC138:
 198C 7C        	MOV	A,H
 198D B5        	ORA	L
 198E CAA219    	JZ	CC134
 1991 210600    	LXI	H,6
 1994 39        	DAD	SP
 1995 54        	MOV	D,H
 1996 5D        	MOV	E,L
 1997 CD4D2F    	CALL	CCGINT
 199A 23        	INX	H
 199B CD8D2F    	CALL	CCPINT
 199E 2B        	DCX	H
 199F C33319    	JMP	CC133
                CC134:
                CC139:
 19A2 210600    	LXI	H,6
 19A5 39        	DAD	SP
 19A6 CD4D2F    	CALL	CCGINT
 19A9 CD402F    	CALL	CCGCHAR
 19AC EB        	XCHG;;
 19AD 210000    	LXI	H,0
 19B0 CDAE2F    	CALL	CCNE
 19B3 7C        	MOV	A,H
 19B4 B5        	ORA	L
 19B5 CAED19    	JZ	CC141
 19B8 210600    	LXI	H,6
 19BB 39        	DAD	SP
 19BC CD4D2F    	CALL	CCGINT
 19BF CD402F    	CALL	CCGCHAR
 19C2 E5        	PUSH	H
 19C3 3E01      	MVI	A,1
 19C5 CD6C1C    	CALL	ISSPACE
 19C8 C1        	POP	B
 19C9 CD1730    	CALL	CCLNEG
 19CC 7C        	MOV	A,H
 19CD B5        	ORA	L
 19CE CAED19    	JZ	CC141
 19D1 210600    	LXI	H,6
 19D4 39        	DAD	SP
 19D5 CD4D2F    	CALL	CCGINT
 19D8 CD402F    	CALL	CCGCHAR
 19DB EB        	XCHG;;
 19DC 212C00    	LXI	H,44
 19DF CDAE2F    	CALL	CCNE
 19E2 7C        	MOV	A,H
 19E3 B5        	ORA	L
 19E4 CAED19    	JZ	CC141
 19E7 210100    	LXI	H,1
 19EA C3F019    	JMP	CC142
                CC141:
 19ED 210000    	LXI	H,0
                CC142:
 19F0 7C        	MOV	A,H
 19F1 B5        	ORA	L
 19F2 CA1B1A    	JZ	CC140
 19F5 210400    	LXI	H,4
 19F8 39        	DAD	SP
 19F9 54        	MOV	D,H
 19FA 5D        	MOV	E,L
 19FB CD4D2F    	CALL	CCGINT
 19FE 23        	INX	H
 19FF CD8D2F    	CALL	CCPINT
 1A02 2B        	DCX	H
 1A03 E5        	PUSH	H
 1A04 210800    	LXI	H,8
 1A07 39        	DAD	SP
 1A08 54        	MOV	D,H
 1A09 5D        	MOV	E,L
 1A0A CD4D2F    	CALL	CCGINT
 1A0D 23        	INX	H
 1A0E CD8D2F    	CALL	CCPINT
 1A11 2B        	DCX	H
 1A12 CD402F    	CALL	CCGCHAR
 1A15 D1        	POP	D
 1A16 7D        	MOV	A,L
 1A17 12        	STAX	D
 1A18 C3A219    	JMP	CC139
                CC140:
 1A1B 210400    	LXI	H,4
 1A1E 39        	DAD	SP
 1A1F CD4D2F    	CALL	CCGINT
 1A22 EB        	XCHG;;
 1A23 210000    	LXI	H,0
 1A26 7D        	MOV	A,L
 1A27 12        	STAX	D
                CC143:
 1A28 210600    	LXI	H,6
 1A2B 39        	DAD	SP
 1A2C CD4D2F    	CALL	CCGINT
 1A2F CD402F    	CALL	CCGCHAR
 1A32 EB        	XCHG;;
 1A33 210000    	LXI	H,0
 1A36 CDAE2F    	CALL	CCNE
 1A39 7C        	MOV	A,H
 1A3A B5        	ORA	L
 1A3B CA5A1A    	JZ	CC145
 1A3E 210600    	LXI	H,6
 1A41 39        	DAD	SP
 1A42 CD4D2F    	CALL	CCGINT
 1A45 CD402F    	CALL	CCGCHAR
 1A48 EB        	XCHG;;
 1A49 212000    	LXI	H,32
 1A4C CDA82F    	CALL	CCEQ
 1A4F 7C        	MOV	A,H
 1A50 B5        	ORA	L
 1A51 CA5A1A    	JZ	CC145
 1A54 210100    	LXI	H,1
 1A57 C35D1A    	JMP	CC146
                CC145:
 1A5A 210000    	LXI	H,0
                CC146:
 1A5D 7C        	MOV	A,H
 1A5E B5        	ORA	L
 1A5F CA731A    	JZ	CC144
 1A62 210600    	LXI	H,6
 1A65 39        	DAD	SP
 1A66 54        	MOV	D,H
 1A67 5D        	MOV	E,L
 1A68 CD4D2F    	CALL	CCGINT
 1A6B 23        	INX	H
 1A6C CD8D2F    	CALL	CCPINT
 1A6F 2B        	DCX	H
 1A70 C3281A    	JMP	CC143
                CC144:
                CC147:
 1A73 210600    	LXI	H,6
 1A76 39        	DAD	SP
 1A77 CD4D2F    	CALL	CCGINT
 1A7A CD402F    	CALL	CCGCHAR
 1A7D 7C        	MOV	A,H
 1A7E B5        	ORA	L
 1A7F CAA81A    	JZ	CC148
 1A82 210200    	LXI	H,2
 1A85 39        	DAD	SP
 1A86 54        	MOV	D,H
 1A87 5D        	MOV	E,L
 1A88 CD4D2F    	CALL	CCGINT
 1A8B 23        	INX	H
 1A8C CD8D2F    	CALL	CCPINT
 1A8F 2B        	DCX	H
 1A90 E5        	PUSH	H
 1A91 210800    	LXI	H,8
 1A94 39        	DAD	SP
 1A95 54        	MOV	D,H
 1A96 5D        	MOV	E,L
 1A97 CD4D2F    	CALL	CCGINT
 1A9A 23        	INX	H
 1A9B CD8D2F    	CALL	CCPINT
 1A9E 2B        	DCX	H
 1A9F CD402F    	CALL	CCGCHAR
 1AA2 D1        	POP	D
 1AA3 7D        	MOV	A,L
 1AA4 12        	STAX	D
 1AA5 C3731A    	JMP	CC147
                CC148:
 1AA8 C1        	POP	B
 1AA9 D1        	POP	D
 1AAA D5        	PUSH	D
 1AAB C5        	PUSH	B
 1AAC 210000    	LXI	H,0
 1AAF 7D        	MOV	A,L
 1AB0 12        	STAX	D
 1AB1 C9        	RET
                SETPAR:
                CC150:
 1AB2 210600    	LXI	H,6
 1AB5 39        	DAD	SP
 1AB6 CD4D2F    	CALL	CCGINT
 1AB9 CD402F    	CALL	CCGCHAR
 1ABC EB        	XCHG;;
 1ABD 210000    	LXI	H,0
 1AC0 CDAE2F    	CALL	CCNE
 1AC3 7C        	MOV	A,H
 1AC4 B5        	ORA	L
 1AC5 CAE41A    	JZ	CC152
 1AC8 210600    	LXI	H,6
 1ACB 39        	DAD	SP
 1ACC CD4D2F    	CALL	CCGINT
 1ACF CD402F    	CALL	CCGCHAR
 1AD2 EB        	XCHG;;
 1AD3 212000    	LXI	H,32
 1AD6 CDA82F    	CALL	CCEQ
 1AD9 7C        	MOV	A,H
 1ADA B5        	ORA	L
 1ADB CAE41A    	JZ	CC152
 1ADE 210100    	LXI	H,1
 1AE1 C3E71A    	JMP	CC153
                CC152:
 1AE4 210000    	LXI	H,0
                CC153:
 1AE7 7C        	MOV	A,H
 1AE8 B5        	ORA	L
 1AE9 CAFD1A    	JZ	CC151
 1AEC 210600    	LXI	H,6
 1AEF 39        	DAD	SP
 1AF0 54        	MOV	D,H
 1AF1 5D        	MOV	E,L
 1AF2 CD4D2F    	CALL	CCGINT
 1AF5 23        	INX	H
 1AF6 CD8D2F    	CALL	CCPINT
 1AF9 2B        	DCX	H
 1AFA C3B21A    	JMP	CC150
                CC151:
                CC154:
 1AFD 210600    	LXI	H,6
 1B00 39        	DAD	SP
 1B01 CD4D2F    	CALL	CCGINT
 1B04 CD402F    	CALL	CCGCHAR
 1B07 EB        	XCHG;;
 1B08 210000    	LXI	H,0
 1B0B CDAE2F    	CALL	CCNE
 1B0E 7C        	MOV	A,H
 1B0F B5        	ORA	L
 1B10 CA2F1B    	JZ	CC156
 1B13 210600    	LXI	H,6
 1B16 39        	DAD	SP
 1B17 CD4D2F    	CALL	CCGINT
 1B1A CD402F    	CALL	CCGCHAR
 1B1D EB        	XCHG;;
 1B1E 212C00    	LXI	H,44
 1B21 CDAE2F    	CALL	CCNE
 1B24 7C        	MOV	A,H
 1B25 B5        	ORA	L
 1B26 CA2F1B    	JZ	CC156
 1B29 210100    	LXI	H,1
 1B2C C3321B    	JMP	CC157
                CC156:
 1B2F 210000    	LXI	H,0
                CC157:
 1B32 7C        	MOV	A,H
 1B33 B5        	ORA	L
 1B34 CA5D1B    	JZ	CC155
 1B37 210400    	LXI	H,4
 1B3A 39        	DAD	SP
 1B3B 54        	MOV	D,H
 1B3C 5D        	MOV	E,L
 1B3D CD4D2F    	CALL	CCGINT
 1B40 23        	INX	H
 1B41 CD8D2F    	CALL	CCPINT
 1B44 2B        	DCX	H
 1B45 E5        	PUSH	H
 1B46 210800    	LXI	H,8
 1B49 39        	DAD	SP
 1B4A 54        	MOV	D,H
 1B4B 5D        	MOV	E,L
 1B4C CD4D2F    	CALL	CCGINT
 1B4F 23        	INX	H
 1B50 CD8D2F    	CALL	CCPINT
 1B53 2B        	DCX	H
 1B54 CD402F    	CALL	CCGCHAR
 1B57 D1        	POP	D
 1B58 7D        	MOV	A,L
 1B59 12        	STAX	D
 1B5A C3FD1A    	JMP	CC154
                CC155:
 1B5D 210400    	LXI	H,4
 1B60 39        	DAD	SP
 1B61 CD4D2F    	CALL	CCGINT
 1B64 EB        	XCHG;;
 1B65 210000    	LXI	H,0
 1B68 7D        	MOV	A,L
 1B69 12        	STAX	D
 1B6A 210600    	LXI	H,6
 1B6D 39        	DAD	SP
 1B6E CD4D2F    	CALL	CCGINT
 1B71 CD402F    	CALL	CCGCHAR
 1B74 EB        	XCHG;;
 1B75 210000    	LXI	H,0
 1B78 CDAE2F    	CALL	CCNE
 1B7B 7C        	MOV	A,H
 1B7C B5        	ORA	L
 1B7D CA9C1B    	JZ	CC159
 1B80 210600    	LXI	H,6
 1B83 39        	DAD	SP
 1B84 CD4D2F    	CALL	CCGINT
 1B87 CD402F    	CALL	CCGCHAR
 1B8A EB        	XCHG;;
 1B8B 212C00    	LXI	H,44
 1B8E CDA82F    	CALL	CCEQ
 1B91 7C        	MOV	A,H
 1B92 B5        	ORA	L
 1B93 CA9C1B    	JZ	CC159
 1B96 210100    	LXI	H,1
 1B99 C39F1B    	JMP	CC160
                CC159:
 1B9C 210000    	LXI	H,0
                CC160:
 1B9F 7C        	MOV	A,H
 1BA0 B5        	ORA	L
 1BA1 CAB21B    	JZ	CC158
 1BA4 210600    	LXI	H,6
 1BA7 39        	DAD	SP
 1BA8 54        	MOV	D,H
 1BA9 5D        	MOV	E,L
 1BAA CD4D2F    	CALL	CCGINT
 1BAD 23        	INX	H
 1BAE CD8D2F    	CALL	CCPINT
 1BB1 2B        	DCX	H
                CC158:
                CC161:
 1BB2 210600    	LXI	H,6
 1BB5 39        	DAD	SP
 1BB6 CD4D2F    	CALL	CCGINT
 1BB9 CD402F    	CALL	CCGCHAR
 1BBC EB        	XCHG;;
 1BBD 210000    	LXI	H,0
 1BC0 CDAE2F    	CALL	CCNE
 1BC3 7C        	MOV	A,H
 1BC4 B5        	ORA	L
 1BC5 CAE41B    	JZ	CC163
 1BC8 210600    	LXI	H,6
 1BCB 39        	DAD	SP
 1BCC CD4D2F    	CALL	CCGINT
 1BCF CD402F    	CALL	CCGCHAR
 1BD2 EB        	XCHG;;
 1BD3 212000    	LXI	H,32
 1BD6 CDA82F    	CALL	CCEQ
 1BD9 7C        	MOV	A,H
 1BDA B5        	ORA	L
 1BDB CAE41B    	JZ	CC163
 1BDE 210100    	LXI	H,1
 1BE1 C3E71B    	JMP	CC164
                CC163:
 1BE4 210000    	LXI	H,0
                CC164:
 1BE7 7C        	MOV	A,H
 1BE8 B5        	ORA	L
 1BE9 CAFD1B    	JZ	CC162
 1BEC 210600    	LXI	H,6
 1BEF 39        	DAD	SP
 1BF0 54        	MOV	D,H
 1BF1 5D        	MOV	E,L
 1BF2 CD4D2F    	CALL	CCGINT
 1BF5 23        	INX	H
 1BF6 CD8D2F    	CALL	CCPINT
 1BF9 2B        	DCX	H
 1BFA C3B21B    	JMP	CC161
                CC162:
                CC165:
 1BFD 210600    	LXI	H,6
 1C00 39        	DAD	SP
 1C01 CD4D2F    	CALL	CCGINT
 1C04 CD402F    	CALL	CCGCHAR
 1C07 7C        	MOV	A,H
 1C08 B5        	ORA	L
 1C09 CA321C    	JZ	CC166
 1C0C 210200    	LXI	H,2
 1C0F 39        	DAD	SP
 1C10 54        	MOV	D,H
 1C11 5D        	MOV	E,L
 1C12 CD4D2F    	CALL	CCGINT
 1C15 23        	INX	H
 1C16 CD8D2F    	CALL	CCPINT
 1C19 2B        	DCX	H
 1C1A E5        	PUSH	H
 1C1B 210800    	LXI	H,8
 1C1E 39        	DAD	SP
 1C1F 54        	MOV	D,H
 1C20 5D        	MOV	E,L
 1C21 CD4D2F    	CALL	CCGINT
 1C24 23        	INX	H
 1C25 CD8D2F    	CALL	CCPINT
 1C28 2B        	DCX	H
 1C29 CD402F    	CALL	CCGCHAR
 1C2C D1        	POP	D
 1C2D 7D        	MOV	A,L
 1C2E 12        	STAX	D
 1C2F C3FD1B    	JMP	CC165
                CC166:
 1C32 C1        	POP	B
 1C33 D1        	POP	D
 1C34 D5        	PUSH	D
 1C35 C5        	PUSH	B
 1C36 210000    	LXI	H,0
 1C39 7D        	MOV	A,L
 1C3A 12        	STAX	D
 1C3B C9        	RET
                ISPRINT:
 1C3C 210200    	LXI	H,2
 1C3F 39        	DAD	SP
 1C40 CD402F    	CALL	CCGCHAR
 1C43 EB        	XCHG;;
 1C44 212000    	LXI	H,32
 1C47 CDC22F    	CALL	CCGE
 1C4A 7C        	MOV	A,H
 1C4B B5        	ORA	L
 1C4C CA681C    	JZ	CC168
 1C4F 210200    	LXI	H,2
 1C52 39        	DAD	SP
 1C53 CD402F    	CALL	CCGCHAR
 1C56 EB        	XCHG;;
 1C57 217E00    	LXI	H,126
 1C5A CDBB2F    	CALL	CCLE
 1C5D 7C        	MOV	A,H
 1C5E B5        	ORA	L
 1C5F CA681C    	JZ	CC168
 1C62 210100    	LXI	H,1
 1C65 C36B1C    	JMP	CC169
                CC168:
 1C68 210000    	LXI	H,0
                CC169:
 1C6B C9        	RET
                ISSPACE:
 1C6C 210200    	LXI	H,2
 1C6F 39        	DAD	SP
 1C70 CD402F    	CALL	CCGCHAR
 1C73 EB        	XCHG;;
 1C74 212000    	LXI	H,32
 1C77 CDBB2F    	CALL	CCLE
 1C7A 7C        	MOV	A,H
 1C7B B5        	ORA	L
 1C7C CADA1C    	JZ	CC171
 1C7F 210200    	LXI	H,2
 1C82 39        	DAD	SP
 1C83 CD402F    	CALL	CCGCHAR
 1C86 EB        	XCHG;;
 1C87 212000    	LXI	H,32
 1C8A CDA82F    	CALL	CCEQ
 1C8D 7C        	MOV	A,H
 1C8E B5        	ORA	L
 1C8F C2CC1C    	JNZ	CC172
 1C92 210200    	LXI	H,2
 1C95 39        	DAD	SP
 1C96 CD402F    	CALL	CCGCHAR
 1C99 EB        	XCHG;;
 1C9A 210D00    	LXI	H,13
 1C9D CDBB2F    	CALL	CCLE
 1CA0 7C        	MOV	A,H
 1CA1 B5        	ORA	L
 1CA2 CABE1C    	JZ	CC173
 1CA5 210200    	LXI	H,2
 1CA8 39        	DAD	SP
 1CA9 CD402F    	CALL	CCGCHAR
 1CAC EB        	XCHG;;
 1CAD 210900    	LXI	H,9
 1CB0 CDC22F    	CALL	CCGE
 1CB3 7C        	MOV	A,H
 1CB4 B5        	ORA	L
 1CB5 CABE1C    	JZ	CC173
 1CB8 210100    	LXI	H,1
 1CBB C3C11C    	JMP	CC174
                CC173:
 1CBE 210000    	LXI	H,0
                CC174:
 1CC1 7C        	MOV	A,H
 1CC2 B5        	ORA	L
 1CC3 C2CC1C    	JNZ	CC172
 1CC6 210000    	LXI	H,0
 1CC9 C3CF1C    	JMP	CC175
                CC172:
 1CCC 210100    	LXI	H,1
                CC175:
 1CCF 7C        	MOV	A,H
 1CD0 B5        	ORA	L
 1CD1 CADA1C    	JZ	CC171
 1CD4 210100    	LXI	H,1
 1CD7 C3DD1C    	JMP	CC176
                CC171:
 1CDA 210000    	LXI	H,0
                CC176:
 1CDD C9        	RET
                ISXDIGIT:
 1CDE 210200    	LXI	H,2
 1CE1 39        	DAD	SP
 1CE2 CD402F    	CALL	CCGCHAR
 1CE5 EB        	XCHG;;
 1CE6 216600    	LXI	H,102
 1CE9 CDBB2F    	CALL	CCLE
 1CEC 7C        	MOV	A,H
 1CED B5        	ORA	L
 1CEE CA0A1D    	JZ	CC178
 1CF1 210200    	LXI	H,2
 1CF4 39        	DAD	SP
 1CF5 CD402F    	CALL	CCGCHAR
 1CF8 EB        	XCHG;;
 1CF9 216100    	LXI	H,97
 1CFC CDC22F    	CALL	CCGE
 1CFF 7C        	MOV	A,H
 1D00 B5        	ORA	L
 1D01 CA0A1D    	JZ	CC178
 1D04 210100    	LXI	H,1
 1D07 C30D1D    	JMP	CC179
                CC178:
 1D0A 210000    	LXI	H,0
                CC179:
 1D0D 7C        	MOV	A,H
 1D0E B5        	ORA	L
 1D0F C2801D    	JNZ	CC180
 1D12 210200    	LXI	H,2
 1D15 39        	DAD	SP
 1D16 CD402F    	CALL	CCGCHAR
 1D19 EB        	XCHG;;
 1D1A 214600    	LXI	H,70
 1D1D CDBB2F    	CALL	CCLE
 1D20 7C        	MOV	A,H
 1D21 B5        	ORA	L
 1D22 CA3E1D    	JZ	CC181
 1D25 210200    	LXI	H,2
 1D28 39        	DAD	SP
 1D29 CD402F    	CALL	CCGCHAR
 1D2C EB        	XCHG;;
 1D2D 214100    	LXI	H,65
 1D30 CDC22F    	CALL	CCGE
 1D33 7C        	MOV	A,H
 1D34 B5        	ORA	L
 1D35 CA3E1D    	JZ	CC181
 1D38 210100    	LXI	H,1
 1D3B C3411D    	JMP	CC182
                CC181:
 1D3E 210000    	LXI	H,0
                CC182:
 1D41 7C        	MOV	A,H
 1D42 B5        	ORA	L
 1D43 C2801D    	JNZ	CC180
 1D46 210200    	LXI	H,2
 1D49 39        	DAD	SP
 1D4A CD402F    	CALL	CCGCHAR
 1D4D EB        	XCHG;;
 1D4E 213900    	LXI	H,57
 1D51 CDBB2F    	CALL	CCLE
 1D54 7C        	MOV	A,H
 1D55 B5        	ORA	L
 1D56 CA721D    	JZ	CC183
 1D59 210200    	LXI	H,2
 1D5C 39        	DAD	SP
 1D5D CD402F    	CALL	CCGCHAR
 1D60 EB        	XCHG;;
 1D61 213000    	LXI	H,48
 1D64 CDC22F    	CALL	CCGE
 1D67 7C        	MOV	A,H
 1D68 B5        	ORA	L
 1D69 CA721D    	JZ	CC183
 1D6C 210100    	LXI	H,1
 1D6F C3751D    	JMP	CC184
                CC183:
 1D72 210000    	LXI	H,0
                CC184:
 1D75 7C        	MOV	A,H
 1D76 B5        	ORA	L
 1D77 C2801D    	JNZ	CC180
 1D7A 210000    	LXI	H,0
 1D7D C3831D    	JMP	CC185
                CC180:
 1D80 210100    	LXI	H,1
                CC185:
 1D83 C9        	RET
                ISXSTR:
 1D84 C1        	POP	B
 1D85 E1        	POP	H
 1D86 E5        	PUSH	H
 1D87 C5        	PUSH	B
 1D88 CD402F    	CALL	CCGCHAR
 1D8B EB        	XCHG;;
 1D8C 210000    	LXI	H,0
 1D8F CDA82F    	CALL	CCEQ
 1D92 7C        	MOV	A,H
 1D93 B5        	ORA	L
 1D94 C2B91D    	JNZ	CC188
 1D97 C1        	POP	B
 1D98 E1        	POP	H
 1D99 E5        	PUSH	H
 1D9A C5        	PUSH	B
 1D9B E5        	PUSH	H
 1D9C 21921E    	LXI	H,CC186+0
 1D9F E5        	PUSH	H
 1DA0 3E02      	MVI	A,2
 1DA2 CDD11E    	CALL	STRCMP
 1DA5 C1        	POP	B
 1DA6 C1        	POP	B
 1DA7 EB        	XCHG;;
 1DA8 210000    	LXI	H,0
 1DAB CDA82F    	CALL	CCEQ
 1DAE 7C        	MOV	A,H
 1DAF B5        	ORA	L
 1DB0 C2B91D    	JNZ	CC188
 1DB3 210000    	LXI	H,0
 1DB6 C3BC1D    	JMP	CC189
                CC188:
 1DB9 210100    	LXI	H,1
                CC189:
 1DBC 7C        	MOV	A,H
 1DBD B5        	ORA	L
 1DBE CAC51D    	JZ	CC187
 1DC1 210000    	LXI	H,0
 1DC4 C9        	RET
                CC187:
 1DC5 C1        	POP	B
 1DC6 E1        	POP	H
 1DC7 E5        	PUSH	H
 1DC8 C5        	PUSH	B
 1DC9 E5        	PUSH	H
 1DCA 21961E    	LXI	H,CC186+4
 1DCD E5        	PUSH	H
 1DCE 3E02      	MVI	A,2
 1DD0 CDD11E    	CALL	STRCMP
 1DD3 C1        	POP	B
 1DD4 C1        	POP	B
 1DD5 EB        	XCHG;;
 1DD6 210000    	LXI	H,0
 1DD9 CDA82F    	CALL	CCEQ
 1DDC 7C        	MOV	A,H
 1DDD B5        	ORA	L
 1DDE C2031E    	JNZ	CC191
 1DE1 C1        	POP	B
 1DE2 E1        	POP	H
 1DE3 E5        	PUSH	H
 1DE4 C5        	PUSH	B
 1DE5 E5        	PUSH	H
 1DE6 219A1E    	LXI	H,CC186+8
 1DE9 E5        	PUSH	H
 1DEA 3E02      	MVI	A,2
 1DEC CDD11E    	CALL	STRCMP
 1DEF C1        	POP	B
 1DF0 C1        	POP	B
 1DF1 EB        	XCHG;;
 1DF2 210000    	LXI	H,0
 1DF5 CDA82F    	CALL	CCEQ
 1DF8 7C        	MOV	A,H
 1DF9 B5        	ORA	L
 1DFA C2031E    	JNZ	CC191
 1DFD 210000    	LXI	H,0
 1E00 C3061E    	JMP	CC192
                CC191:
 1E03 210100    	LXI	H,1
                CC192:
 1E06 7C        	MOV	A,H
 1E07 B5        	ORA	L
 1E08 CA0F1E    	JZ	CC190
 1E0B 210000    	LXI	H,0
 1E0E C9        	RET
                CC190:
 1E0F C1        	POP	B
 1E10 E1        	POP	H
 1E11 E5        	PUSH	H
 1E12 C5        	PUSH	B
 1E13 E5        	PUSH	H
 1E14 219D1E    	LXI	H,CC186+11
 1E17 E5        	PUSH	H
 1E18 3E02      	MVI	A,2
 1E1A CDD11E    	CALL	STRCMP
 1E1D C1        	POP	B
 1E1E C1        	POP	B
 1E1F EB        	XCHG;;
 1E20 210000    	LXI	H,0
 1E23 CDA82F    	CALL	CCEQ
 1E26 7C        	MOV	A,H
 1E27 B5        	ORA	L
 1E28 C24D1E    	JNZ	CC194
 1E2B C1        	POP	B
 1E2C E1        	POP	H
 1E2D E5        	PUSH	H
 1E2E C5        	PUSH	B
 1E2F E5        	PUSH	H
 1E30 21A11E    	LXI	H,CC186+15
 1E33 E5        	PUSH	H
 1E34 3E02      	MVI	A,2
 1E36 CDD11E    	CALL	STRCMP
 1E39 C1        	POP	B
 1E3A C1        	POP	B
 1E3B EB        	XCHG;;
 1E3C 210000    	LXI	H,0
 1E3F CDA82F    	CALL	CCEQ
 1E42 7C        	MOV	A,H
 1E43 B5        	ORA	L
 1E44 C24D1E    	JNZ	CC194
 1E47 210000    	LXI	H,0
 1E4A C3501E    	JMP	CC195
                CC194:
 1E4D 210100    	LXI	H,1
                CC195:
 1E50 7C        	MOV	A,H
 1E51 B5        	ORA	L
 1E52 CA591E    	JZ	CC193
 1E55 210000    	LXI	H,0
 1E58 C9        	RET
                CC193:
                CC196:
 1E59 C1        	POP	B
 1E5A E1        	POP	H
 1E5B E5        	PUSH	H
 1E5C C5        	PUSH	B
 1E5D CD402F    	CALL	CCGCHAR
 1E60 E5        	PUSH	H
 1E61 3E01      	MVI	A,1
 1E63 CDDE1C    	CALL	ISXDIGIT
 1E66 C1        	POP	B
 1E67 7C        	MOV	A,H
 1E68 B5        	ORA	L
 1E69 CA7D1E    	JZ	CC197
 1E6C 210200    	LXI	H,2
 1E6F 39        	DAD	SP
 1E70 54        	MOV	D,H
 1E71 5D        	MOV	E,L
 1E72 CD4D2F    	CALL	CCGINT
 1E75 23        	INX	H
 1E76 CD8D2F    	CALL	CCPINT
 1E79 2B        	DCX	H
 1E7A C3591E    	JMP	CC196
                CC197:
 1E7D C1        	POP	B
 1E7E E1        	POP	H
 1E7F E5        	PUSH	H
 1E80 C5        	PUSH	B
 1E81 CD402F    	CALL	CCGCHAR
 1E84 7C        	MOV	A,H
 1E85 B5        	ORA	L
 1E86 C28D1E    	JNZ	CC198
 1E89 210100    	LXI	H,1
 1E8C C9        	RET
                CC198:
 1E8D 210000    	LXI	H,0
 1E90 C9        	RET
                CC199:
 1E91 C9        	RET
 1E92 4144430041CC186:	DB	65,68,67,0,65,68,68,0,67,67
 1E9C 0044414100	DB	0,68,65,65,0,68,65,68,0
                STRCPY:
                CC201:
 1EA5 210400    	LXI	H,4
 1EA8 39        	DAD	SP
 1EA9 54        	MOV	D,H
 1EAA 5D        	MOV	E,L
 1EAB CD4D2F    	CALL	CCGINT
 1EAE 23        	INX	H
 1EAF CD8D2F    	CALL	CCPINT
 1EB2 2B        	DCX	H
 1EB3 E5        	PUSH	H
 1EB4 210400    	LXI	H,4
 1EB7 39        	DAD	SP
 1EB8 54        	MOV	D,H
 1EB9 5D        	MOV	E,L
 1EBA CD4D2F    	CALL	CCGINT
 1EBD 23        	INX	H
 1EBE CD8D2F    	CALL	CCPINT
 1EC1 2B        	DCX	H
 1EC2 CD402F    	CALL	CCGCHAR
 1EC5 D1        	POP	D
 1EC6 7D        	MOV	A,L
 1EC7 12        	STAX	D
 1EC8 7C        	MOV	A,H
 1EC9 B5        	ORA	L
 1ECA CAD01E    	JZ	CC202
 1ECD C3A51E    	JMP	CC201
                CC202:
 1ED0 C9        	RET
                STRCMP:
                CC204:
 1ED1 210400    	LXI	H,4
 1ED4 39        	DAD	SP
 1ED5 CD4D2F    	CALL	CCGINT
 1ED8 CD402F    	CALL	CCGCHAR
 1EDB EB        	XCHG;;
 1EDC C1        	POP	B
 1EDD E1        	POP	H
 1EDE E5        	PUSH	H
 1EDF C5        	PUSH	B
 1EE0 CD402F    	CALL	CCGCHAR
 1EE3 CDA82F    	CALL	CCEQ
 1EE6 7C        	MOV	A,H
 1EE7 B5        	ORA	L
 1EE8 CA1B1F    	JZ	CC205
 1EEB 210400    	LXI	H,4
 1EEE 39        	DAD	SP
 1EEF CD4D2F    	CALL	CCGINT
 1EF2 CD402F    	CALL	CCGCHAR
 1EF5 7C        	MOV	A,H
 1EF6 B5        	ORA	L
 1EF7 C2FE1E    	JNZ	CC206
 1EFA 210000    	LXI	H,0
 1EFD C9        	RET
                CC206:
 1EFE 210400    	LXI	H,4
 1F01 39        	DAD	SP
 1F02 54        	MOV	D,H
 1F03 5D        	MOV	E,L
 1F04 CD4D2F    	CALL	CCGINT
 1F07 23        	INX	H
 1F08 CD8D2F    	CALL	CCPINT
 1F0B 210200    	LXI	H,2
 1F0E 39        	DAD	SP
 1F0F 54        	MOV	D,H
 1F10 5D        	MOV	E,L
 1F11 CD4D2F    	CALL	CCGINT
 1F14 23        	INX	H
 1F15 CD8D2F    	CALL	CCPINT
 1F18 C3D11E    	JMP	CC204
                CC205:
 1F1B 210400    	LXI	H,4
 1F1E 39        	DAD	SP
 1F1F CD4D2F    	CALL	CCGINT
 1F22 CD402F    	CALL	CCGCHAR
 1F25 EB        	XCHG;;
 1F26 C1        	POP	B
 1F27 E1        	POP	H
 1F28 E5        	PUSH	H
 1F29 C5        	PUSH	B
 1F2A CD402F    	CALL	CCGCHAR
 1F2D CD0430    	CALL	CCSUB
 1F30 C9        	RET
                ITOA:
 1F31 21F3FF    	LXI	H,-13
 1F34 39        	DAD	SP
 1F35 F9        	SPHL
 1F36 210B00    	LXI	H,11
 1F39 39        	DAD	SP
 1F3A EB        	XCHG;;
 1F3B 210000    	LXI	H,0
 1F3E CD8D2F    	CALL	CCPINT
                CC210:
 1F41 210B00    	LXI	H,11
 1F44 39        	DAD	SP
 1F45 CD4D2F    	CALL	CCGINT
 1F48 EB        	XCHG;;
 1F49 210800    	LXI	H,8
 1F4C CDC82F    	CALL	CCLT
 1F4F 7C        	MOV	A,H
 1F50 B5        	ORA	L
 1F51 CA7E1F    	JZ	CC209
 1F54 C3681F    	JMP	CC211
                CC208:
 1F57 210B00    	LXI	H,11
 1F5A 39        	DAD	SP
 1F5B 54        	MOV	D,H
 1F5C 5D        	MOV	E,L
 1F5D CD4D2F    	CALL	CCGINT
 1F60 23        	INX	H
 1F61 CD8D2F    	CALL	CCPINT
 1F64 2B        	DCX	H
 1F65 C3411F    	JMP	CC210
                CC211:
 1F68 210000    	LXI	H,0
 1F6B 39        	DAD	SP
 1F6C EB        	XCHG;;
 1F6D 210B00    	LXI	H,11
 1F70 39        	DAD	SP
 1F71 CD4D2F    	CALL	CCGINT
 1F74 19        	DAD	D
 1F75 EB        	XCHG;;
 1F76 212000    	LXI	H,32
 1F79 7D        	MOV	A,L
 1F7A 12        	STAX	D
 1F7B C3571F    	JMP	CC208
                CC209:
 1F7E 210800    	LXI	H,8
 1F81 39        	DAD	SP
 1F82 E5        	PUSH	H
 1F83 211300    	LXI	H,19
 1F86 39        	DAD	SP
 1F87 CD4D2F    	CALL	CCGINT
 1F8A EB        	XCHG;;
 1F8B 210000    	LXI	H,0
 1F8E CDC22F    	CALL	CCGE
 1F91 7C        	MOV	A,H
 1F92 B5        	ORA	L
 1F93 CA9C1F    	JZ	CC212
 1F96 212B00    	LXI	H,43
 1F99 C39F1F    	JMP	CC213
                CC212:
 1F9C 212D00    	LXI	H,45
                CC213:
 1F9F D1        	POP	D
 1FA0 7D        	MOV	A,L
 1FA1 12        	STAX	D
 1FA2 210B00    	LXI	H,11
 1FA5 39        	DAD	SP
 1FA6 EB        	XCHG;;
 1FA7 210700    	LXI	H,7
 1FAA CD8D2F    	CALL	CCPINT
                CC216:
 1FAD 210000    	LXI	H,0
 1FB0 39        	DAD	SP
 1FB1 EB        	XCHG;;
 1FB2 210B00    	LXI	H,11
 1FB5 39        	DAD	SP
 1FB6 CD4D2F    	CALL	CCGINT
 1FB9 19        	DAD	D
 1FBA E5        	PUSH	H
 1FBB 211300    	LXI	H,19
 1FBE 39        	DAD	SP
 1FBF CD4D2F    	CALL	CCGINT
 1FC2 EB        	XCHG;;
 1FC3 210A00    	LXI	H,10
 1FC6 CDAB2E    	CALL	CCDIV
 1FC9 EB        	XCHG;;
 1FCA 113000    	LXI	D,48
 1FCD 19        	DAD	D
 1FCE D1        	POP	D
 1FCF 7D        	MOV	A,L
 1FD0 12        	STAX	D
 1FD1 211100    	LXI	H,17
 1FD4 39        	DAD	SP
 1FD5 E5        	PUSH	H
 1FD6 211300    	LXI	H,19
 1FD9 39        	DAD	SP
 1FDA CD4D2F    	CALL	CCGINT
 1FDD EB        	XCHG;;
 1FDE 210A00    	LXI	H,10
 1FE1 CDAB2E    	CALL	CCDIV
 1FE4 D1        	POP	D
 1FE5 CD8D2F    	CALL	CCPINT
 1FE8 210B00    	LXI	H,11
 1FEB 39        	DAD	SP
 1FEC 54        	MOV	D,H
 1FED 5D        	MOV	E,L
 1FEE CD4D2F    	CALL	CCGINT
 1FF1 2B        	DCX	H
 1FF2 CD8D2F    	CALL	CCPINT
 1FF5 23        	INX	H
                CC214:
 1FF6 211100    	LXI	H,17
 1FF9 39        	DAD	SP
 1FFA CD4D2F    	CALL	CCGINT
 1FFD AF        	XRA	A
 1FFE B4        	ORA	H
 1FFF FA0920    	JM	CC215
 2002 B5        	ORA	L
 2003 CA0920    	JZ	CC215
 2006 C3AD1F    	JMP	CC216
                CC215:
 2009 210000    	LXI	H,0
 200C 39        	DAD	SP
 200D EB        	XCHG;;
 200E 210B00    	LXI	H,11
 2011 39        	DAD	SP
 2012 CD4D2F    	CALL	CCGINT
 2015 19        	DAD	D
 2016 EB        	XCHG;;
 2017 210800    	LXI	H,08
 201A 39        	DAD	SP
 201B CD402F    	CALL	CCGCHAR
 201E 7D        	MOV	A,L
 201F 12        	STAX	D
 2020 210900    	LXI	H,9
 2023 39        	DAD	SP
 2024 EB        	XCHG;;
 2025 210000    	LXI	H,0
 2028 CD8D2F    	CALL	CCPINT
                CC217:
 202B 210B00    	LXI	H,11
 202E 39        	DAD	SP
 202F CD4D2F    	CALL	CCGINT
 2032 EB        	XCHG;;
 2033 210800    	LXI	H,8
 2036 CDC82F    	CALL	CCLT
 2039 7C        	MOV	A,H
 203A B5        	ORA	L
 203B CA7520    	JZ	CC218
 203E 210F00    	LXI	H,15
 2041 39        	DAD	SP
 2042 CD4D2F    	CALL	CCGINT
 2045 E5        	PUSH	H
 2046 210B00    	LXI	H,11
 2049 39        	DAD	SP
 204A 54        	MOV	D,H
 204B 5D        	MOV	E,L
 204C CD4D2F    	CALL	CCGINT
 204F 23        	INX	H
 2050 CD8D2F    	CALL	CCPINT
 2053 2B        	DCX	H
 2054 D1        	POP	D
 2055 19        	DAD	D
 2056 E5        	PUSH	H
 2057 210200    	LXI	H,2
 205A 39        	DAD	SP
 205B E5        	PUSH	H
 205C 210F00    	LXI	H,15
 205F 39        	DAD	SP
 2060 54        	MOV	D,H
 2061 5D        	MOV	E,L
 2062 CD4D2F    	CALL	CCGINT
 2065 23        	INX	H
 2066 CD8D2F    	CALL	CCPINT
 2069 2B        	DCX	H
 206A D1        	POP	D
 206B 19        	DAD	D
 206C CD402F    	CALL	CCGCHAR
 206F D1        	POP	D
 2070 7D        	MOV	A,L
 2071 12        	STAX	D
 2072 C32B20    	JMP	CC217
                CC218:
 2075 210F00    	LXI	H,15
 2078 39        	DAD	SP
 2079 CD4D2F    	CALL	CCGINT
 207C EB        	XCHG;;
 207D 210900    	LXI	H,09
 2080 39        	DAD	SP
 2081 CD4D2F    	CALL	CCGINT
 2084 19        	DAD	D
 2085 EB        	XCHG;;
 2086 210000    	LXI	H,0
 2089 7D        	MOV	A,L
 208A 12        	STAX	D
 208B 210D00    	LXI	H,13
 208E 39        	DAD	SP
 208F F9        	SPHL
 2090 C9        	RET
                ATOI:
 2091 C5        	PUSH	B
 2092 C5        	PUSH	B
 2093 210000    	LXI	H,0
 2096 39        	DAD	SP
 2097 E5        	PUSH	H
 2098 210400    	LXI	H,4
 209B 39        	DAD	SP
 209C EB        	XCHG;;
 209D 210000    	LXI	H,0
 20A0 CD8D2F    	CALL	CCPINT
 20A3 D1        	POP	D
 20A4 CD8D2F    	CALL	CCPINT
 20A7 210600    	LXI	H,6
 20AA 39        	DAD	SP
 20AB CD4D2F    	CALL	CCGINT
 20AE CD402F    	CALL	CCGCHAR
 20B1 EB        	XCHG;;
 20B2 212B00    	LXI	H,43
 20B5 CDA82F    	CALL	CCEQ
 20B8 7C        	MOV	A,H
 20B9 B5        	ORA	L
 20BA C2D920    	JNZ	CC221
 20BD 210600    	LXI	H,6
 20C0 39        	DAD	SP
 20C1 CD4D2F    	CALL	CCGINT
 20C4 CD402F    	CALL	CCGCHAR
 20C7 EB        	XCHG;;
 20C8 212D00    	LXI	H,45
 20CB CDA82F    	CALL	CCEQ
 20CE 7C        	MOV	A,H
 20CF B5        	ORA	L
 20D0 C2D920    	JNZ	CC221
 20D3 210000    	LXI	H,0
 20D6 C3DC20    	JMP	CC222
                CC221:
 20D9 210100    	LXI	H,1
                CC222:
 20DC 7C        	MOV	A,H
 20DD B5        	ORA	L
 20DE CA0B21    	JZ	CC220
 20E1 210600    	LXI	H,6
 20E4 39        	DAD	SP
 20E5 54        	MOV	D,H
 20E6 5D        	MOV	E,L
 20E7 CD4D2F    	CALL	CCGINT
 20EA 23        	INX	H
 20EB CD8D2F    	CALL	CCPINT
 20EE 2B        	DCX	H
 20EF CD402F    	CALL	CCGCHAR
 20F2 EB        	XCHG;;
 20F3 212D00    	LXI	H,45
 20F6 CDA82F    	CALL	CCEQ
 20F9 7C        	MOV	A,H
 20FA B5        	ORA	L
 20FB CA0B21    	JZ	CC223
 20FE 210000    	LXI	H,0
 2101 39        	DAD	SP
 2102 EB        	XCHG;;
 2103 E1        	POP	H
 2104 E5        	PUSH	H
 2105 CD0B30    	CALL	CCNEG
 2108 CD8D2F    	CALL	CCPINT
                CC223:
                CC220:
                CC224:
 210B 210600    	LXI	H,6
 210E 39        	DAD	SP
 210F CD4D2F    	CALL	CCGINT
 2112 CD402F    	CALL	CCGCHAR
 2115 7C        	MOV	A,H
 2116 B5        	ORA	L
 2117 CA4E21    	JZ	CC225
 211A 210200    	LXI	H,2
 211D 39        	DAD	SP
 211E E5        	PUSH	H
 211F 210400    	LXI	H,4
 2122 39        	DAD	SP
 2123 CD4D2F    	CALL	CCGINT
 2126 110A00    	LXI	D,10
 2129 CD8B2E    	CALL	CCMULT
 212C E5        	PUSH	H
 212D 210A00    	LXI	H,10
 2130 39        	DAD	SP
 2131 54        	MOV	D,H
 2132 5D        	MOV	E,L
 2133 CD4D2F    	CALL	CCGINT
 2136 23        	INX	H
 2137 CD8D2F    	CALL	CCPINT
 213A 2B        	DCX	H
 213B CD402F    	CALL	CCGCHAR
 213E D1        	POP	D
 213F 19        	DAD	D
 2140 EB        	XCHG;;
 2141 213000    	LXI	H,48
 2144 CD0430    	CALL	CCSUB
 2147 D1        	POP	D
 2148 CD8D2F    	CALL	CCPINT
 214B C30B21    	JMP	CC224
                CC225:
 214E E1        	POP	H
 214F E5        	PUSH	H
 2150 7C        	MOV	A,H
 2151 B5        	ORA	L
 2152 CA5F21    	JZ	CC226
 2155 C1        	POP	B
 2156 E1        	POP	H
 2157 E5        	PUSH	H
 2158 C5        	PUSH	B
 2159 CD0B30    	CALL	CCNEG
 215C C1        	POP	B
 215D C1        	POP	B
 215E C9        	RET
                CC226:
 215F C1        	POP	B
 2160 E1        	POP	H
 2161 E5        	PUSH	H
 2162 C5        	PUSH	B
 2163 C1        	POP	B
 2164 C1        	POP	B
 2165 C9        	RET
                XTOB:
 2166 C5        	PUSH	B
 2167 210100    	LXI	H,1
 216A 39        	DAD	SP
 216B EB        	XCHG;;
 216C 210000    	LXI	H,0
 216F 7D        	MOV	A,L
 2170 12        	STAX	D
                CC228:
 2171 210400    	LXI	H,4
 2174 39        	DAD	SP
 2175 CD4D2F    	CALL	CCGINT
 2178 CD402F    	CALL	CCGCHAR
 217B 7C        	MOV	A,H
 217C B5        	ORA	L
 217D CA9622    	JZ	CC229
 2180 210400    	LXI	H,4
 2183 39        	DAD	SP
 2184 CD4D2F    	CALL	CCGINT
 2187 CD402F    	CALL	CCGCHAR
 218A EB        	XCHG;;
 218B 213000    	LXI	H,48
 218E CDC22F    	CALL	CCGE
 2191 7C        	MOV	A,H
 2192 B5        	ORA	L
 2193 CAB221    	JZ	CC231
 2196 210400    	LXI	H,4
 2199 39        	DAD	SP
 219A CD4D2F    	CALL	CCGINT
 219D CD402F    	CALL	CCGCHAR
 21A0 EB        	XCHG;;
 21A1 213900    	LXI	H,57
 21A4 CDBB2F    	CALL	CCLE
 21A7 7C        	MOV	A,H
 21A8 B5        	ORA	L
 21A9 CAB221    	JZ	CC231
 21AC 210100    	LXI	H,1
 21AF C3B521    	JMP	CC232
                CC231:
 21B2 210000    	LXI	H,0
                CC232:
 21B5 7C        	MOV	A,H
 21B6 B5        	ORA	L
 21B7 CAC721    	JZ	CC230
 21BA 210000    	LXI	H,0
 21BD 39        	DAD	SP
 21BE EB        	XCHG;;
 21BF 213000    	LXI	H,48
 21C2 7D        	MOV	A,L
 21C3 12        	STAX	D
 21C4 C35822    	JMP	CC233
                CC230:
 21C7 210400    	LXI	H,4
 21CA 39        	DAD	SP
 21CB CD4D2F    	CALL	CCGINT
 21CE CD402F    	CALL	CCGCHAR
 21D1 EB        	XCHG;;
 21D2 214100    	LXI	H,65
 21D5 CDC22F    	CALL	CCGE
 21D8 7C        	MOV	A,H
 21D9 B5        	ORA	L
 21DA CAF921    	JZ	CC235
 21DD 210400    	LXI	H,4
 21E0 39        	DAD	SP
 21E1 CD4D2F    	CALL	CCGINT
 21E4 CD402F    	CALL	CCGCHAR
 21E7 EB        	XCHG;;
 21E8 214600    	LXI	H,70
 21EB CDBB2F    	CALL	CCLE
 21EE 7C        	MOV	A,H
 21EF B5        	ORA	L
 21F0 CAF921    	JZ	CC235
 21F3 210100    	LXI	H,1
 21F6 C3FC21    	JMP	CC236
                CC235:
 21F9 210000    	LXI	H,0
                CC236:
 21FC 7C        	MOV	A,H
 21FD B5        	ORA	L
 21FE CA0E22    	JZ	CC234
 2201 210000    	LXI	H,0
 2204 39        	DAD	SP
 2205 EB        	XCHG;;
 2206 213700    	LXI	H,55
 2209 7D        	MOV	A,L
 220A 12        	STAX	D
 220B C35822    	JMP	CC237
                CC234:
 220E 210400    	LXI	H,4
 2211 39        	DAD	SP
 2212 CD4D2F    	CALL	CCGINT
 2215 CD402F    	CALL	CCGCHAR
 2218 EB        	XCHG;;
 2219 216100    	LXI	H,97
 221C CDC22F    	CALL	CCGE
 221F 7C        	MOV	A,H
 2220 B5        	ORA	L
 2221 CA4022    	JZ	CC239
 2224 210400    	LXI	H,4
 2227 39        	DAD	SP
 2228 CD4D2F    	CALL	CCGINT
 222B CD402F    	CALL	CCGCHAR
 222E EB        	XCHG;;
 222F 216600    	LXI	H,102
 2232 CDBB2F    	CALL	CCLE
 2235 7C        	MOV	A,H
 2236 B5        	ORA	L
 2237 CA4022    	JZ	CC239
 223A 210100    	LXI	H,1
 223D C34322    	JMP	CC240
                CC239:
 2240 210000    	LXI	H,0
                CC240:
 2243 7C        	MOV	A,H
 2244 B5        	ORA	L
 2245 CA5522    	JZ	CC238
 2248 210000    	LXI	H,0
 224B 39        	DAD	SP
 224C EB        	XCHG;;
 224D 215700    	LXI	H,87
 2250 7D        	MOV	A,L
 2251 12        	STAX	D
 2252 C35822    	JMP	CC241
                CC238:
 2255 C39622    	JMP	CC229
                CC241:
                CC237:
                CC233:
 2258 210100    	LXI	H,1
 225B 39        	DAD	SP
 225C E5        	PUSH	H
 225D 210300    	LXI	H,3
 2260 39        	DAD	SP
 2261 CD402F    	CALL	CCGCHAR
 2264 EB        	XCHG;;
 2265 210400    	LXI	H,4
 2268 CD312F    	CALL	CCASL
 226B EB        	XCHG;;
 226C 210600    	LXI	H,6
 226F 39        	DAD	SP
 2270 CD4D2F    	CALL	CCGINT
 2273 CD402F    	CALL	CCGCHAR
 2276 19        	DAD	D
 2277 EB        	XCHG;;
 2278 210200    	LXI	H,2
 227B 39        	DAD	SP
 227C CD402F    	CALL	CCGCHAR
 227F CD0430    	CALL	CCSUB
 2282 D1        	POP	D
 2283 7D        	MOV	A,L
 2284 12        	STAX	D
 2285 210400    	LXI	H,4
 2288 39        	DAD	SP
 2289 54        	MOV	D,H
 228A 5D        	MOV	E,L
 228B CD4D2F    	CALL	CCGINT
 228E 23        	INX	H
 228F CD8D2F    	CALL	CCPINT
 2292 2B        	DCX	H
 2293 C37121    	JMP	CC228
                CC229:
 2296 210100    	LXI	H,1
 2299 39        	DAD	SP
 229A CD402F    	CALL	CCGCHAR
 229D C1        	POP	B
 229E C9        	RET
                XTOI:
 229F C5        	PUSH	B
 22A0 C5        	PUSH	B
 22A1 210200    	LXI	H,2
 22A4 39        	DAD	SP
 22A5 EB        	XCHG;;
 22A6 210000    	LXI	H,0
 22A9 CD8D2F    	CALL	CCPINT
                CC243:
 22AC 210600    	LXI	H,6
 22AF 39        	DAD	SP
 22B0 CD4D2F    	CALL	CCGINT
 22B3 CD402F    	CALL	CCGCHAR
 22B6 7C        	MOV	A,H
 22B7 B5        	ORA	L
 22B8 CAD223    	JZ	CC244
 22BB 210600    	LXI	H,6
 22BE 39        	DAD	SP
 22BF CD4D2F    	CALL	CCGINT
 22C2 CD402F    	CALL	CCGCHAR
 22C5 EB        	XCHG;;
 22C6 213000    	LXI	H,48
 22C9 CDC22F    	CALL	CCGE
 22CC 7C        	MOV	A,H
 22CD B5        	ORA	L
 22CE CAED22    	JZ	CC246
 22D1 210600    	LXI	H,6
 22D4 39        	DAD	SP
 22D5 CD4D2F    	CALL	CCGINT
 22D8 CD402F    	CALL	CCGCHAR
 22DB EB        	XCHG;;
 22DC 213900    	LXI	H,57
 22DF CDBB2F    	CALL	CCLE
 22E2 7C        	MOV	A,H
 22E3 B5        	ORA	L
 22E4 CAED22    	JZ	CC246
 22E7 210100    	LXI	H,1
 22EA C3F022    	JMP	CC247
                CC246:
 22ED 210000    	LXI	H,0
                CC247:
 22F0 7C        	MOV	A,H
 22F1 B5        	ORA	L
 22F2 CA0323    	JZ	CC245
 22F5 210000    	LXI	H,0
 22F8 39        	DAD	SP
 22F9 EB        	XCHG;;
 22FA 213000    	LXI	H,48
 22FD CD8D2F    	CALL	CCPINT
 2300 C39623    	JMP	CC248
                CC245:
 2303 210600    	LXI	H,6
 2306 39        	DAD	SP
 2307 CD4D2F    	CALL	CCGINT
 230A CD402F    	CALL	CCGCHAR
 230D EB        	XCHG;;
 230E 214100    	LXI	H,65
 2311 CDC22F    	CALL	CCGE
 2314 7C        	MOV	A,H
 2315 B5        	ORA	L
 2316 CA3523    	JZ	CC250
 2319 210600    	LXI	H,6
 231C 39        	DAD	SP
 231D CD4D2F    	CALL	CCGINT
 2320 CD402F    	CALL	CCGCHAR
 2323 EB        	XCHG;;
 2324 214600    	LXI	H,70
 2327 CDBB2F    	CALL	CCLE
 232A 7C        	MOV	A,H
 232B B5        	ORA	L
 232C CA3523    	JZ	CC250
 232F 210100    	LXI	H,1
 2332 C33823    	JMP	CC251
                CC250:
 2335 210000    	LXI	H,0
                CC251:
 2338 7C        	MOV	A,H
 2339 B5        	ORA	L
 233A CA4B23    	JZ	CC249
 233D 210000    	LXI	H,0
 2340 39        	DAD	SP
 2341 EB        	XCHG;;
 2342 213700    	LXI	H,55
 2345 CD8D2F    	CALL	CCPINT
 2348 C39623    	JMP	CC252
                CC249:
 234B 210600    	LXI	H,6
 234E 39        	DAD	SP
 234F CD4D2F    	CALL	CCGINT
 2352 CD402F    	CALL	CCGCHAR
 2355 EB        	XCHG;;
 2356 216100    	LXI	H,97
 2359 CDC22F    	CALL	CCGE
 235C 7C        	MOV	A,H
 235D B5        	ORA	L
 235E CA7D23    	JZ	CC254
 2361 210600    	LXI	H,6
 2364 39        	DAD	SP
 2365 CD4D2F    	CALL	CCGINT
 2368 CD402F    	CALL	CCGCHAR
 236B EB        	XCHG;;
 236C 216600    	LXI	H,102
 236F CDBB2F    	CALL	CCLE
 2372 7C        	MOV	A,H
 2373 B5        	ORA	L
 2374 CA7D23    	JZ	CC254
 2377 210100    	LXI	H,1
 237A C38023    	JMP	CC255
                CC254:
 237D 210000    	LXI	H,0
                CC255:
 2380 7C        	MOV	A,H
 2381 B5        	ORA	L
 2382 CA9323    	JZ	CC253
 2385 210000    	LXI	H,0
 2388 39        	DAD	SP
 2389 EB        	XCHG;;
 238A 215700    	LXI	H,87
 238D CD8D2F    	CALL	CCPINT
 2390 C39623    	JMP	CC256
                CC253:
 2393 C3D223    	JMP	CC244
                CC256:
                CC252:
                CC248:
 2396 210200    	LXI	H,2
 2399 39        	DAD	SP
 239A E5        	PUSH	H
 239B 210400    	LXI	H,4
 239E 39        	DAD	SP
 239F CD4D2F    	CALL	CCGINT
 23A2 EB        	XCHG;;
 23A3 210400    	LXI	H,4
 23A6 CD312F    	CALL	CCASL
 23A9 EB        	XCHG;;
 23AA 210800    	LXI	H,08
 23AD 39        	DAD	SP
 23AE CD4D2F    	CALL	CCGINT
 23B1 CD402F    	CALL	CCGCHAR
 23B4 19        	DAD	D
 23B5 EB        	XCHG;;
 23B6 C1        	POP	B
 23B7 E1        	POP	H
 23B8 E5        	PUSH	H
 23B9 C5        	PUSH	B
 23BA CD0430    	CALL	CCSUB
 23BD D1        	POP	D
 23BE CD8D2F    	CALL	CCPINT
 23C1 210600    	LXI	H,6
 23C4 39        	DAD	SP
 23C5 54        	MOV	D,H
 23C6 5D        	MOV	E,L
 23C7 CD4D2F    	CALL	CCGINT
 23CA 23        	INX	H
 23CB CD8D2F    	CALL	CCPINT
 23CE 2B        	DCX	H
 23CF C3AC22    	JMP	CC243
                CC244:
 23D2 C1        	POP	B
 23D3 E1        	POP	H
 23D4 E5        	PUSH	H
 23D5 C5        	PUSH	B
 23D6 C1        	POP	B
 23D7 C1        	POP	B
 23D8 C9        	RET
                PUTNWL:
 23D9 21E423    	LXI	H,CC257+0
 23DC E5        	PUSH	H
 23DD 3E01      	MVI	A,1
 23DF CD6C25    	CALL	PUTSTR
 23E2 C1        	POP	B
 23E3 C9        	RET
 23E4 0D0A00    CC257:	DB	13,10,0
                PUTWRD:
 23E7 21F8FF    	LXI	H,-8
 23EA 39        	DAD	SP
 23EB F9        	SPHL
 23EC 210000    	LXI	H,0
 23EF 39        	DAD	SP
 23F0 EB        	XCHG;;
 23F1 210300    	LXI	H,3
 23F4 CD8D2F    	CALL	CCPINT
                CC261:
 23F7 E1        	POP	H
 23F8 E5        	PUSH	H
 23F9 AF        	XRA	A
 23FA B4        	ORA	H
 23FB FA8D24    	JM	CC260
 23FE C31224    	JMP	CC262
                CC259:
 2401 210000    	LXI	H,0
 2404 39        	DAD	SP
 2405 54        	MOV	D,H
 2406 5D        	MOV	E,L
 2407 CD4D2F    	CALL	CCGINT
 240A 2B        	DCX	H
 240B CD8D2F    	CALL	CCPINT
 240E 23        	INX	H
 240F C3F723    	JMP	CC261
                CC262:
 2412 210700    	LXI	H,7
 2415 39        	DAD	SP
 2416 E5        	PUSH	H
 2417 210C00    	LXI	H,12
 241A 39        	DAD	SP
 241B CD4D2F    	CALL	CCGINT
 241E EB        	XCHG;;
 241F 210F00    	LXI	H,15
 2422 CDA12F    	CALL	CCAND
 2425 D1        	POP	D
 2426 7D        	MOV	A,L
 2427 12        	STAX	D
 2428 210A00    	LXI	H,10
 242B 39        	DAD	SP
 242C E5        	PUSH	H
 242D 210C00    	LXI	H,12
 2430 39        	DAD	SP
 2431 CD4D2F    	CALL	CCGINT
 2434 EB        	XCHG;;
 2435 210400    	LXI	H,4
 2438 CD232F    	CALL	CCASR
 243B EB        	XCHG;;
 243C 21FF0F    	LXI	H,4095
 243F CDA12F    	CALL	CCAND
 2442 D1        	POP	D
 2443 CD8D2F    	CALL	CCPINT
 2446 210700    	LXI	H,7
 2449 39        	DAD	SP
 244A CD402F    	CALL	CCGCHAR
 244D EB        	XCHG;;
 244E 210A00    	LXI	H,10
 2451 CDC82F    	CALL	CCLT
 2454 7C        	MOV	A,H
 2455 B5        	ORA	L
 2456 CA7324    	JZ	CC263
 2459 210200    	LXI	H,2
 245C 39        	DAD	SP
 245D EB        	XCHG;;
 245E E1        	POP	H
 245F E5        	PUSH	H
 2460 19        	DAD	D
 2461 E5        	PUSH	H
 2462 210900    	LXI	H,9
 2465 39        	DAD	SP
 2466 CD402F    	CALL	CCGCHAR
 2469 113000    	LXI	D,48
 246C 19        	DAD	D
 246D D1        	POP	D
 246E 7D        	MOV	A,L
 246F 12        	STAX	D
 2470 C38A24    	JMP	CC264
                CC263:
 2473 210200    	LXI	H,2
 2476 39        	DAD	SP
 2477 EB        	XCHG;;
 2478 E1        	POP	H
 2479 E5        	PUSH	H
 247A 19        	DAD	D
 247B E5        	PUSH	H
 247C 210900    	LXI	H,9
 247F 39        	DAD	SP
 2480 CD402F    	CALL	CCGCHAR
 2483 113700    	LXI	D,55
 2486 19        	DAD	D
 2487 D1        	POP	D
 2488 7D        	MOV	A,L
 2489 12        	STAX	D
                CC264:
 248A C30124    	JMP	CC259
                CC260:
 248D 210200    	LXI	H,2
 2490 39        	DAD	SP
 2491 110400    	LXI	D,4
 2494 19        	DAD	D
 2495 EB        	XCHG;;
 2496 210000    	LXI	H,0
 2499 7D        	MOV	A,L
 249A 12        	STAX	D
 249B 210200    	LXI	H,2
 249E 39        	DAD	SP
 249F E5        	PUSH	H
 24A0 3E01      	MVI	A,1
 24A2 CD6C25    	CALL	PUTSTR
 24A5 C1        	POP	B
 24A6 210800    	LXI	H,8
 24A9 39        	DAD	SP
 24AA F9        	SPHL
 24AB C9        	RET
                PUTBYT:
 24AC C5        	PUSH	B
 24AD C5        	PUSH	B
 24AE C5        	PUSH	B
 24AF 210000    	LXI	H,0
 24B2 39        	DAD	SP
 24B3 EB        	XCHG;;
 24B4 210100    	LXI	H,1
 24B7 CD8D2F    	CALL	CCPINT
                CC268:
 24BA E1        	POP	H
 24BB E5        	PUSH	H
 24BC AF        	XRA	A
 24BD B4        	ORA	H
 24BE FA4F25    	JM	CC267
 24C1 C3D524    	JMP	CC269
                CC266:
 24C4 210000    	LXI	H,0
 24C7 39        	DAD	SP
 24C8 54        	MOV	D,H
 24C9 5D        	MOV	E,L
 24CA CD4D2F    	CALL	CCGINT
 24CD 2B        	DCX	H
 24CE CD8D2F    	CALL	CCPINT
 24D1 23        	INX	H
 24D2 C3BA24    	JMP	CC268
                CC269:
 24D5 210500    	LXI	H,5
 24D8 39        	DAD	SP
 24D9 E5        	PUSH	H
 24DA 210A00    	LXI	H,10
 24DD 39        	DAD	SP
 24DE CD402F    	CALL	CCGCHAR
 24E1 EB        	XCHG;;
 24E2 210F00    	LXI	H,15
 24E5 CDA12F    	CALL	CCAND
 24E8 D1        	POP	D
 24E9 7D        	MOV	A,L
 24EA 12        	STAX	D
 24EB 210800    	LXI	H,8
 24EE 39        	DAD	SP
 24EF E5        	PUSH	H
 24F0 210A00    	LXI	H,10
 24F3 39        	DAD	SP
 24F4 CD402F    	CALL	CCGCHAR
 24F7 EB        	XCHG;;
 24F8 210400    	LXI	H,4
 24FB CD232F    	CALL	CCASR
 24FE EB        	XCHG;;
 24FF 21FF0F    	LXI	H,4095
 2502 CDA12F    	CALL	CCAND
 2505 D1        	POP	D
 2506 7D        	MOV	A,L
 2507 12        	STAX	D
 2508 210500    	LXI	H,5
 250B 39        	DAD	SP
 250C CD402F    	CALL	CCGCHAR
 250F EB        	XCHG;;
 2510 210A00    	LXI	H,10
 2513 CDC82F    	CALL	CCLT
 2516 7C        	MOV	A,H
 2517 B5        	ORA	L
 2518 CA3525    	JZ	CC270
 251B 210200    	LXI	H,2
 251E 39        	DAD	SP
 251F EB        	XCHG;;
 2520 E1        	POP	H
 2521 E5        	PUSH	H
 2522 19        	DAD	D
 2523 E5        	PUSH	H
 2524 210700    	LXI	H,7
 2527 39        	DAD	SP
 2528 CD402F    	CALL	CCGCHAR
 252B 113000    	LXI	D,48
 252E 19        	DAD	D
 252F D1        	POP	D
 2530 7D        	MOV	A,L
 2531 12        	STAX	D
 2532 C34C25    	JMP	CC271
                CC270:
 2535 210200    	LXI	H,2
 2538 39        	DAD	SP
 2539 EB        	XCHG;;
 253A E1        	POP	H
 253B E5        	PUSH	H
 253C 19        	DAD	D
 253D E5        	PUSH	H
 253E 210700    	LXI	H,7
 2541 39        	DAD	SP
 2542 CD402F    	CALL	CCGCHAR
 2545 113700    	LXI	D,55
 2548 19        	DAD	D
 2549 D1        	POP	D
 254A 7D        	MOV	A,L
 254B 12        	STAX	D
                CC271:
 254C C3C424    	JMP	CC266
                CC267:
 254F 210200    	LXI	H,2
 2552 39        	DAD	SP
 2553 110200    	LXI	D,2
 2556 19        	DAD	D
 2557 EB        	XCHG;;
 2558 210000    	LXI	H,0
 255B 7D        	MOV	A,L
 255C 12        	STAX	D
 255D 210200    	LXI	H,2
 2560 39        	DAD	SP
 2561 E5        	PUSH	H
 2562 3E01      	MVI	A,1
 2564 CD6C25    	CALL	PUTSTR
 2567 C1        	POP	B
 2568 C1        	POP	B
 2569 C1        	POP	B
 256A C1        	POP	B
 256B C9        	RET
                PUTSTR:
                CC273:
 256C C1        	POP	B
 256D E1        	POP	H
 256E E5        	PUSH	H
 256F C5        	PUSH	B
 2570 CD402F    	CALL	CCGCHAR
 2573 7C        	MOV	A,H
 2574 B5        	ORA	L
 2575 CA9325    	JZ	CC274
 2578 210200    	LXI	H,2
 257B 39        	DAD	SP
 257C 54        	MOV	D,H
 257D 5D        	MOV	E,L
 257E CD4D2F    	CALL	CCGINT
 2581 23        	INX	H
 2582 CD8D2F    	CALL	CCPINT
 2585 2B        	DCX	H
 2586 CD402F    	CALL	CCGCHAR
 2589 E5        	PUSH	H
 258A 3E01      	MVI	A,1
 258C CDBB26    	CALL	PUTCHR
 258F C1        	POP	B
 2590 C36C25    	JMP	CC273
                CC274:
 2593 C9        	RET
                GETSTR:
 2594 3B        	DCX	SP
 2595 C5        	PUSH	B
 2596 210000    	LXI	H,0
 2599 39        	DAD	SP
 259A EB        	XCHG;;
 259B 210000    	LXI	H,0
 259E CD8D2F    	CALL	CCPINT
                CC276:
 25A1 210200    	LXI	H,2
 25A4 39        	DAD	SP
 25A5 E5        	PUSH	H
 25A6 AF        	XRA	A
 25A7 CDC526    	CALL	GETCHR
 25AA D1        	POP	D
 25AB 7D        	MOV	A,L
 25AC 12        	STAX	D
 25AD EB        	XCHG;;
 25AE 210D00    	LXI	H,13
 25B1 CDAE2F    	CALL	CCNE
 25B4 7C        	MOV	A,H
 25B5 B5        	ORA	L
 25B6 CA9826    	JZ	CC277
 25B9 210200    	LXI	H,2
 25BC 39        	DAD	SP
 25BD CD402F    	CALL	CCGCHAR
 25C0 EB        	XCHG;;
 25C1 210900    	LXI	H,9
 25C4 CDA82F    	CALL	CCEQ
 25C7 7C        	MOV	A,H
 25C8 B5        	ORA	L
 25C9 CAD625    	JZ	CC278
 25CC 210200    	LXI	H,2
 25CF 39        	DAD	SP
 25D0 EB        	XCHG;;
 25D1 212000    	LXI	H,32
 25D4 7D        	MOV	A,L
 25D5 12        	STAX	D
                CC278:
 25D6 210200    	LXI	H,2
 25D9 39        	DAD	SP
 25DA CD402F    	CALL	CCGCHAR
 25DD EB        	XCHG;;
 25DE 210800    	LXI	H,8
 25E1 CDA82F    	CALL	CCEQ
 25E4 7C        	MOV	A,H
 25E5 B5        	ORA	L
 25E6 CAFC25    	JZ	CC280
 25E9 D1        	POP	D
 25EA D5        	PUSH	D
 25EB 210000    	LXI	H,0
 25EE CDB42F    	CALL	CCGT
 25F1 7C        	MOV	A,H
 25F2 B5        	ORA	L
 25F3 CAFC25    	JZ	CC280
 25F6 210100    	LXI	H,1
 25F9 C3FF25    	JMP	CC281
                CC280:
 25FC 210000    	LXI	H,0
                CC281:
 25FF 7C        	MOV	A,H
 2600 B5        	ORA	L
 2601 CA3326    	JZ	CC279
 2604 210000    	LXI	H,0
 2607 39        	DAD	SP
 2608 54        	MOV	D,H
 2609 5D        	MOV	E,L
 260A CD4D2F    	CALL	CCGINT
 260D 2B        	DCX	H
 260E CD8D2F    	CALL	CCPINT
 2611 23        	INX	H
 2612 210800    	LXI	H,8
 2615 E5        	PUSH	H
 2616 3E01      	MVI	A,1
 2618 CDBB26    	CALL	PUTCHR
 261B C1        	POP	B
 261C 212000    	LXI	H,32
 261F E5        	PUSH	H
 2620 3E01      	MVI	A,1
 2622 CDBB26    	CALL	PUTCHR
 2625 C1        	POP	B
 2626 210800    	LXI	H,8
 2629 E5        	PUSH	H
 262A 3E01      	MVI	A,1
 262C CDBB26    	CALL	PUTCHR
 262F C1        	POP	B
 2630 C39526    	JMP	CC282
                CC279:
 2633 210200    	LXI	H,2
 2636 39        	DAD	SP
 2637 CD402F    	CALL	CCGCHAR
 263A E5        	PUSH	H
 263B 3E01      	MVI	A,1
 263D CD3C1C    	CALL	ISPRINT
 2640 C1        	POP	B
 2641 7C        	MOV	A,H
 2642 B5        	ORA	L
 2643 CA5D26    	JZ	CC284
 2646 D1        	POP	D
 2647 D5        	PUSH	D
 2648 210500    	LXI	H,5
 264B 39        	DAD	SP
 264C CD4D2F    	CALL	CCGINT
 264F CDC82F    	CALL	CCLT
 2652 7C        	MOV	A,H
 2653 B5        	ORA	L
 2654 CA5D26    	JZ	CC284
 2657 210100    	LXI	H,1
 265A C36026    	JMP	CC285
                CC284:
 265D 210000    	LXI	H,0
                CC285:
 2660 7C        	MOV	A,H
 2661 B5        	ORA	L
 2662 CA9526    	JZ	CC283
 2665 210700    	LXI	H,7
 2668 39        	DAD	SP
 2669 CD4D2F    	CALL	CCGINT
 266C E5        	PUSH	H
 266D 210200    	LXI	H,2
 2670 39        	DAD	SP
 2671 54        	MOV	D,H
 2672 5D        	MOV	E,L
 2673 CD4D2F    	CALL	CCGINT
 2676 23        	INX	H
 2677 CD8D2F    	CALL	CCPINT
 267A 2B        	DCX	H
 267B D1        	POP	D
 267C 19        	DAD	D
 267D EB        	XCHG;;
 267E 210200    	LXI	H,2
 2681 39        	DAD	SP
 2682 CD402F    	CALL	CCGCHAR
 2685 7D        	MOV	A,L
 2686 12        	STAX	D
 2687 210200    	LXI	H,2
 268A 39        	DAD	SP
 268B CD402F    	CALL	CCGCHAR
 268E E5        	PUSH	H
 268F 3E01      	MVI	A,1
 2691 CDBB26    	CALL	PUTCHR
 2694 C1        	POP	B
                CC283:
                CC282:
 2695 C3A125    	JMP	CC276
                CC277:
 2698 210700    	LXI	H,7
 269B 39        	DAD	SP
 269C CD4D2F    	CALL	CCGINT
 269F EB        	XCHG;;
 26A0 E1        	POP	H
 26A1 E5        	PUSH	H
 26A2 19        	DAD	D
 26A3 EB        	XCHG;;
 26A4 210000    	LXI	H,0
 26A7 7D        	MOV	A,L
 26A8 12        	STAX	D
 26A9 AF        	XRA	A
 26AA CDD923    	CALL	PUTNWL
 26AD 33        	INX	SP
 26AE C1        	POP	B
 26AF C9        	RET
                EXEC:
 26B0 C1        	POP	B
 26B1 D1        	POP	D
 26B2 D5        	PUSH	D
 26B3 C5        	PUSH	B
 26B4 21BA26    	LXI	H,ADRRET
 26B7 E5        	PUSH	H
 26B8 EB        	XCHG
 26B9 E9        	PCHL
                ADRRET:
 26BA C9        	RET
                PUTCHR:
 26BB C1        	POP	B
 26BC D1        	POP	D
 26BD D5        	PUSH	D
 26BE C5        	PUSH	B
 26BF 0E02      	MVI	C,02H
 26C1 CD0500    	CALL	0005H
 26C4 C9        	RET
                GETCHR:
                GCLOOP:
 26C5 0E06      	MVI	C,06H
 26C7 1EFF      	MVI	E,0FFH
 26C9 CD0500    	CALL	0005H
 26CC FE00      	CPI	00H
 26CE CAC526    	JZ	GCLOOP
 26D1 FE61      	CPI	'a'
 26D3 DADD26    	JC	GCRET
 26D6 FE7B      	CPI	'z'+1
 26D8 D2DD26    	JNC	GCRET
 26DB E6DF      	ANI	11011111B
 26DD 2600      GCRET:	MVI	H,00H
 26DF 6F        	MOV	L,A
 26E0 C9        	RET
                SYSTEM:
 26E1 E1        	POP	H
 26E2 C32501    	JMP	START
 26E5 C9        	RET
 26E6 3F00      OPC001:	DB	'?',00H
 26E8 41434900  OPC002:	DB	'A','C','I',00H
 26EC 41444300  OPC003:	DB	'A','D','C',00H
 26F0 41444400  OPC004:	DB	'A','D','D',00H
 26F4 41444900  OPC005:	DB	'A','D','I',00H
 26F8 414E4100  OPC006:	DB	'A','N','A',00H
 26FC 414E4900  OPC007:	DB	'A','N','I',00H
 2700 43414C4C00OPC008:	DB	'C','A','L','L',00H
 2705 434300    OPC009:	DB	'C','C',00H
 2708 434D00    OPC010:	DB	'C','M',00H
 270B 434D4100  OPC011:	DB	'C','M','A',00H
 270F 434D4300  OPC012:	DB	'C','M','C',00H
 2713 434D5000  OPC013:	DB	'C','M','P',00H
 2717 434E5A00  OPC014:	DB	'C','N','Z',00H
 271B 435000    OPC015:	DB	'C','P',00H
 271E 43504500  OPC016:	DB	'C','P','E',00H
 2722 43504900  OPC017:	DB	'C','P','I',00H
 2726 43504F00  OPC018:	DB	'C','P','O',00H
 272A 435A00    OPC019:	DB	'C','Z',00H
 272D 44414100  OPC020:	DB	'D','A','A',00H
 2731 44414400  OPC021:	DB	'D','A','D',00H
 2735 44435200  OPC022:	DB	'D','C','R',00H
 2739 44435800  OPC023:	DB	'D','C','X',00H
 273D 444900    OPC024:	DB	'D','I',00H
 2740 454900    OPC025:	DB	'E','I',00H
 2743 484C5400  OPC026:	DB	'H','L','T',00H
 2747 494E00    OPC027:	DB	'I','N',00H
 274A 494E5200  OPC028:	DB	'I','N','R',00H
 274E 494E5800  OPC029:	DB	'I','N','X',00H
 2752 4A4300    OPC030:	DB	'J','C',00H
 2755 4A435A00  OPC031:	DB	'J','C','Z',00H
 2759 4A4D00    OPC032:	DB	'J','M',00H
 275C 4A4D5000  OPC033:	DB	'J','M','P',00H
 2760 4A4E5A00  OPC034:	DB	'J','N','Z',00H
 2764 4A5000    OPC035:	DB	'J','P',00H
 2767 4A504500  OPC036:	DB	'J','P','E',00H
 276B 4A504F00  OPC037:	DB	'J','P','O',00H
 276F 4A5A00    OPC038:	DB	'J','Z',00H
 2772 4C444100  OPC039:	DB	'L','D','A',00H
 2776 4C44415800OPC040:	DB	'L','D','A','X',00H
 277B 4C484C4400OPC041:	DB	'L','H','L','D',00H
 2780 4C584900  OPC042:	DB	'L','X','I',00H
 2784 4D4F5600  OPC043:	DB	'M','O','V',00H
 2788 4D564900  OPC044:	DB	'M','V','I',00H
 278C 4E4F5000  OPC045:	DB	'N','O','P',00H
 2790 4F524100  OPC046:	DB	'O','R','A',00H
 2794 4F524900  OPC047:	DB	'O','R','I',00H
 2798 4F555400  OPC048:	DB	'O','U','T',00H
 279C 5043484C00OPC049:	DB	'P','C','H','L',00H
 27A1 504F5000  OPC050:	DB	'P','O','P',00H
 27A5 5055534800OPC051:	DB	'P','U','S','H',00H
 27AA 52414C00  OPC052:	DB	'R','A','L',00H
 27AE 52415200  OPC053:	DB	'R','A','R',00H
 27B2 524300    OPC054:	DB	'R','C',00H
 27B5 52455400  OPC055:	DB	'R','E','T',00H
 27B9 524C4300  OPC056:	DB	'R','L','C',00H
 27BD 524D00    OPC057:	DB	'R','M',00H
 27C0 524E4300  OPC058:	DB	'R','N','C',00H
 27C4 524E5A00  OPC059:	DB	'R','N','Z',00H
 27C8 525000    OPC060:	DB	'R','P',00H
 27CB 52504500  OPC061:	DB	'R','P','E',00H
 27CF 52504F00  OPC062:	DB	'R','P','O',00H
 27D3 52524300  OPC063:	DB	'R','R','C',00H
 27D7 5253543000OPC064:	DB	'R','S','T','0',00H
 27DC 5253543100OPC065:	DB	'R','S','T','1',00H
 27E1 5253543200OPC066:	DB	'R','S','T','2',00H
 27E6 5253543300OPC067:	DB	'R','S','T','3',00H
 27EB 5253543400OPC068:	DB	'R','S','T','4',00H
 27F0 5253543500OPC069:	DB	'R','S','T','5',00H
 27F5 5253543600OPC070:	DB	'R','S','T','6',00H
 27FA 5253543700OPC071:	DB	'R','S','T','7',00H
 27FF 525A00    OPC072:	DB	'R','Z',00H
 2802 53424200  OPC073:	DB	'S','B','B',00H
 2806 53424900  OPC074:	DB	'S','B','I',00H
 280A 53484C4400OPC075:	DB	'S','H','L','D',00H
 280F 5350484C00OPC076:	DB	'S','P','H','L',00H
 2814 53544100  OPC077:	DB	'S','T','A',00H
 2818 5354415800OPC078:	DB	'S','T','A','X',00H
 281D 53544300  OPC079:	DB	'S','T','C',00H
 2821 53554200  OPC080:	DB	'S','U','B',00H
 2825 53554900  OPC081:	DB	'S','U','I',00H
 2829 5843484700OPC082:	DB	'X','C','H','G',00H
 282E 58524100  OPC083:	DB	'X','R','A',00H
 2832 58524900  OPC084:	DB	'X','R','I',00H
 2836 5854484C00OPC085:	DB	'X','T','H','L',00H
                ;
                OPCPTR:
 283B 8C27802718	DW	OPC045,OPC042,OPC078,OPC029,OPC028,OPC022,OPC044,OPC056
 284B E626312776	DW	OPC001,OPC021,OPC040,OPC023,OPC028,OPC022,OPC044,OPC063
 285B E626802718	DW	OPC001,OPC042,OPC078,OPC029,OPC028,OPC022,OPC044,OPC052
 286B E626312776	DW	OPC001,OPC021,OPC040,OPC023,OPC028,OPC022,OPC044,OPC053
 287B E62680270A	DW	OPC001,OPC042,OPC075,OPC029,OPC028,OPC022,OPC044,OPC020
 288B E62631277B	DW	OPC001,OPC021,OPC041,OPC023,OPC028,OPC022,OPC044,OPC011
 289B E626802714	DW	OPC001,OPC042,OPC077,OPC029,OPC028,OPC022,OPC044,OPC079
 28AB E626312772	DW	OPC001,OPC021,OPC039,OPC023,OPC028,OPC022,OPC044,OPC012
 28BB 8427842784	DW	OPC043,OPC043,OPC043,OPC043,OPC043,OPC043,OPC043,OPC043
 28CB 8427842784	DW	OPC043,OPC043,OPC043,OPC043,OPC043,OPC043,OPC043,OPC043
 28DB 8427842784	DW	OPC043,OPC043,OPC043,OPC043,OPC043,OPC043,OPC043,OPC043
 28EB 8427842784	DW	OPC043,OPC043,OPC043,OPC043,OPC043,OPC043,OPC043,OPC043
 28FB 8427842784	DW	OPC043,OPC043,OPC043,OPC043,OPC043,OPC043,OPC043,OPC043
 290B 8427842784	DW	OPC043,OPC043,OPC043,OPC043,OPC043,OPC043,OPC043,OPC043
 291B 8427842784	DW	OPC043,OPC043,OPC043,OPC043,OPC043,OPC043,OPC026,OPC043
 292B 8427842784	DW	OPC043,OPC043,OPC043,OPC043,OPC043,OPC043,OPC043,OPC043
 293B F026F026F0	DW	OPC004,OPC004,OPC004,OPC004,OPC004,OPC004,OPC004,OPC004
 294B EC26EC26EC	DW	OPC003,OPC003,OPC003,OPC003,OPC003,OPC003,OPC003,OPC003
 295B 2128212821	DW	OPC080,OPC080,OPC080,OPC080,OPC080,OPC080,OPC080,OPC080
 296B 0228022802	DW	OPC073,OPC073,OPC073,OPC073,OPC073,OPC073,OPC073,OPC073
 297B F826F826F8	DW	OPC006,OPC006,OPC006,OPC006,OPC006,OPC006,OPC006,OPC006
 298B 2E282E282E	DW	OPC083,OPC083,OPC083,OPC083,OPC083,OPC083,OPC083,OPC083
 299B 9027902790	DW	OPC046,OPC046,OPC046,OPC046,OPC046,OPC046,OPC046,OPC046
 29AB 1327132713	DW	OPC013,OPC013,OPC013,OPC013,OPC013,OPC013,OPC013,OPC013
 29BB C427A12760	DW	OPC059,OPC050,OPC034,OPC033,OPC014,OPC051,OPC005,OPC064
 29CB FF27B5276F	DW	OPC072,OPC055,OPC038,OPC001,OPC019,OPC008,OPC002,OPC065
 29DB C027A12755	DW	OPC058,OPC050,OPC031,OPC048,OPC014,OPC051,OPC081,OPC066
 29EB B227E62652	DW	OPC054,OPC001,OPC030,OPC027,OPC009,OPC001,OPC074,OPC067
 29FB CF27A1276B	DW	OPC062,OPC050,OPC037,OPC085,OPC018,OPC051,OPC007,OPC068
 2A0B CB279C2767	DW	OPC061,OPC049,OPC036,OPC082,OPC016,OPC001,OPC084,OPC069
 2A1B C827A12764	DW	OPC060,OPC050,OPC035,OPC024,OPC015,OPC051,OPC047,OPC070
 2A2B BD270F2859	DW	OPC057,OPC076,OPC032,OPC025,OPC010,OPC001,OPC017,OPC071
                ;
 2A3B 0000      OPR000:	DB	00H,00H
 2A3D 0100      OPR001:	DB	01H,00H
 2A3F 0200      OPR002:	DB	02H,00H
 2A41 4200      OPR00B:	DB	'B',00H
 2A43 4300      OPR00C:	DB	'C',00H
 2A45 4400      OPR00D:	DB	'D',00H
 2A47 4500      OPR00E:	DB	'E',00H
 2A49 4800      OPR00H:	DB	'H',00H
 2A4B 4C00      OPR00L:	DB	'L',00H
 2A4D 4D00      OPR00M:	DB	'M',00H
 2A4F 4100      OPR00A:	DB	'A',00H
 2A51 50535700  OPRPSW:	DB	'P','S','W',00H
 2A55 535000    OPR0SP:	DB	'S','P',00H
                ;
                OPRPTR1:
 2A58 3B2A412A41	DW	OPR000,OPR00B,OPR00B,OPR00B,OPR00B,OPR00B,OPR00B,OPR000
 2A68 3B2A412A41	DW	OPR000,OPR00B,OPR00B,OPR00B,OPR00C,OPR00C,OPR00C,OPR000
 2A78 3B2A452A45	DW	OPR000,OPR00D,OPR00D,OPR00D,OPR00D,OPR00D,OPR00D,OPR000
 2A88 3B2A452A45	DW	OPR000,OPR00D,OPR00D,OPR00D,OPR00E,OPR00E,OPR00E,OPR000
 2A98 3B2A492A3F	DW	OPR000,OPR00H,OPR002,OPR00H,OPR00H,OPR00H,OPR00H,OPR000
 2AA8 3B2A492A3F	DW	OPR000,OPR00H,OPR002,OPR00H,OPR00L,OPR00L,OPR00L,OPR000
 2AB8 3B2A552A3F	DW	OPR000,OPR0SP,OPR002,OPR0SP,OPR00M,OPR00M,OPR00M,OPR000
 2AC8 3B2A552A3F	DW	OPR000,OPR0SP,OPR002,OPR0SP,OPR00A,OPR00A,OPR00A,OPR000
 2AD8 412A412A41	DW	OPR00B,OPR00B,OPR00B,OPR00B,OPR00B,OPR00B,OPR00B,OPR00B
 2AE8 432A432A43	DW	OPR00C,OPR00C,OPR00C,OPR00C,OPR00C,OPR00C,OPR00C,OPR00C
 2AF8 452A452A45	DW	OPR00D,OPR00D,OPR00D,OPR00D,OPR00D,OPR00D,OPR00D,OPR00D
 2B08 472A472A47	DW	OPR00E,OPR00E,OPR00E,OPR00E,OPR00E,OPR00E,OPR00E,OPR00E
 2B18 492A492A49	DW	OPR00H,OPR00H,OPR00H,OPR00H,OPR00H,OPR00H,OPR00H,OPR00H
 2B28 4B2A4B2A4B	DW	OPR00L,OPR00L,OPR00L,OPR00L,OPR00L,OPR00L,OPR00L,OPR00L
 2B38 4D2A4D2A4D	DW	OPR00M,OPR00M,OPR00M,OPR00M,OPR00M,OPR00M,OPR000,OPR00M
 2B48 4F2A4F2A4F	DW	OPR00A,OPR00A,OPR00A,OPR00A,OPR00A,OPR00A,OPR00A,OPR00A
 2B58 412A432A45	DW	OPR00B,OPR00C,OPR00D,OPR00E,OPR00H,OPR00L,OPR00M,OPR00A
 2B68 412A432A45	DW	OPR00B,OPR00C,OPR00D,OPR00E,OPR00H,OPR00L,OPR00M,OPR00A
 2B78 412A432A45	DW	OPR00B,OPR00C,OPR00D,OPR00E,OPR00H,OPR00L,OPR00M,OPR00A
 2B88 412A432A45	DW	OPR00B,OPR00C,OPR00D,OPR00E,OPR00H,OPR00L,OPR00M,OPR00A
 2B98 412A432A45	DW	OPR00B,OPR00C,OPR00D,OPR00E,OPR00H,OPR00L,OPR00M,OPR00A
 2BA8 412A432A45	DW	OPR00B,OPR00C,OPR00D,OPR00E,OPR00H,OPR00L,OPR00M,OPR00A
 2BB8 412A432A45	DW	OPR00B,OPR00C,OPR00D,OPR00E,OPR00H,OPR00L,OPR00M,OPR00A
 2BC8 412A432A45	DW	OPR00B,OPR00C,OPR00D,OPR00E,OPR00H,OPR00L,OPR00M,OPR00A
 2BD8 3B2A412A3F	DW	OPR000,OPR00B,OPR002,OPR002,OPR002,OPR00B,OPR001,OPR000
 2BE8 3B2A3B2A3F	DW	OPR000,OPR000,OPR002,OPR002,OPR002,OPR002,OPR001,OPR000
 2BF8 3B2A452A3F	DW	OPR000,OPR00D,OPR002,OPR001,OPR002,OPR00D,OPR001,OPR000
 2C08 3B2A3B2A3F	DW	OPR000,OPR000,OPR002,OPR001,OPR002,OPR002,OPR001,OPR000
 2C18 3B2A492A3F	DW	OPR000,OPR00H,OPR002,OPR000,OPR002,OPR00H,OPR001,OPR000
 2C28 3B2A3B2A3F	DW	OPR000,OPR000,OPR002,OPR000,OPR002,OPR002,OPR001,OPR000
 2C38 3B2A512A3F	DW	OPR000,OPRPSW,OPR002,OPR000,OPR002,OPRPSW,OPR001,OPR000
 2C48 3B2A3B2A3F	DW	OPR000,OPR000,OPR002,OPR000,OPR002,OPR002,OPR001,OPR000
                ;
                OPRPTR2:
 2C58 3B2A3F2A3B	DW	OPR000,OPR002,OPR000,OPR000,OPR000,OPR000,OPR001,OPR000
 2C68 3B2A3B2A3B	DW	OPR000,OPR000,OPR000,OPR000,OPR000,OPR000,OPR001,OPR000
 2C78 3B2A3F2A3B	DW	OPR000,OPR002,OPR000,OPR000,OPR000,OPR000,OPR001,OPR000
 2C88 3B2A3B2A3B	DW	OPR000,OPR000,OPR000,OPR000,OPR000,OPR000,OPR001,OPR000
 2C98 3B2A3F2A3B	DW	OPR000,OPR002,OPR000,OPR000,OPR000,OPR000,OPR001,OPR000
 2CA8 3B2A3B2A3B	DW	OPR000,OPR000,OPR000,OPR000,OPR000,OPR000,OPR001,OPR000
 2CB8 3B2A3F2A3B	DW	OPR000,OPR002,OPR000,OPR000,OPR000,OPR000,OPR001,OPR000
 2CC8 3B2A3B2A3B	DW	OPR000,OPR000,OPR000,OPR000,OPR000,OPR000,OPR001,OPR000
 2CD8 412A432A45	DW	OPR00B,OPR00C,OPR00D,OPR00E,OPR00H,OPR00L,OPR00M,OPR00A
 2CE8 412A432A45	DW	OPR00B,OPR00C,OPR00D,OPR00E,OPR00H,OPR00L,OPR00M,OPR00A
 2CF8 412A432A45	DW	OPR00B,OPR00C,OPR00D,OPR00E,OPR00H,OPR00L,OPR00M,OPR00A
 2D08 412A432A45	DW	OPR00B,OPR00C,OPR00D,OPR00E,OPR00H,OPR00L,OPR00M,OPR00A
 2D18 412A432A45	DW	OPR00B,OPR00C,OPR00D,OPR00E,OPR00H,OPR00L,OPR00M,OPR00A
 2D28 412A432A45	DW	OPR00B,OPR00C,OPR00D,OPR00E,OPR00H,OPR00L,OPR00M,OPR00A
 2D38 412A432A45	DW	OPR00B,OPR00C,OPR00D,OPR00E,OPR00H,OPR00L,OPR000,OPR00A
 2D48 412A432A45	DW	OPR00B,OPR00C,OPR00D,OPR00E,OPR00H,OPR00L,OPR00M,OPR00A
 2D58 3B2A3B2A3B	DW	OPR000,OPR000,OPR000,OPR000,OPR000,OPR000,OPR000,OPR000
 2D68 3B2A3B2A3B	DW	OPR000,OPR000,OPR000,OPR000,OPR000,OPR000,OPR000,OPR000
 2D78 3B2A3B2A3B	DW	OPR000,OPR000,OPR000,OPR000,OPR000,OPR000,OPR000,OPR000
 2D88 3B2A3B2A3B	DW	OPR000,OPR000,OPR000,OPR000,OPR000,OPR000,OPR000,OPR000
 2D98 3B2A3B2A3B	DW	OPR000,OPR000,OPR000,OPR000,OPR000,OPR000,OPR000,OPR000
 2DA8 3B2A3B2A3B	DW	OPR000,OPR000,OPR000,OPR000,OPR000,OPR000,OPR000,OPR000
 2DB8 3B2A3B2A3B	DW	OPR000,OPR000,OPR000,OPR000,OPR000,OPR000,OPR000,OPR000
 2DC8 3B2A3B2A3B	DW	OPR000,OPR000,OPR000,OPR000,OPR000,OPR000,OPR000,OPR000
 2DD8 3B2A3B2A3B	DW	OPR000,OPR000,OPR000,OPR000,OPR000,OPR000,OPR000,OPR000
 2DE8 3B2A3B2A3B	DW	OPR000,OPR000,OPR000,OPR000,OPR000,OPR000,OPR000,OPR000
 2DF8 3B2A3B2A3B	DW	OPR000,OPR000,OPR000,OPR000,OPR000,OPR000,OPR000,OPR000
 2E08 3B2A3B2A3B	DW	OPR000,OPR000,OPR000,OPR000,OPR000,OPR000,OPR000,OPR000
 2E18 3B2A3B2A3B	DW	OPR000,OPR000,OPR000,OPR000,OPR000,OPR000,OPR000,OPR000
 2E28 3B2A3B2A3B	DW	OPR000,OPR000,OPR000,OPR000,OPR000,OPR000,OPR000,OPR000
 2E38 3B2A3B2A3B	DW	OPR000,OPR000,OPR000,OPR000,OPR000,OPR000,OPR000,OPR000
 2E48 3B2A3B2A3B	DW	OPR000,OPR000,OPR000,OPR000,OPR000,OPR000,OPR000,OPR000
                OPECOD:
 2E58 D1        	POP	D
 2E59 C1        	POP	B
 2E5A C5        	PUSH	B
 2E5B D5        	PUSH	D
 2E5C 113B28    	LXI	D,OPCPTR
 2E5F 2600      	MVI	H,00H
 2E61 69        	MOV	L,C
 2E62 29        	DAD	H
 2E63 19        	DAD	D
 2E64 5E        	MOV	E,M
 2E65 23        	INX	H
 2E66 56        	MOV	D,M
 2E67 EB        	XCHG
 2E68 C9        	RET
                OPERD1:
 2E69 D1        	POP	D
 2E6A C1        	POP	B
 2E6B C5        	PUSH	B
 2E6C D5        	PUSH	D
 2E6D 11582A    	LXI	D,OPRPTR1
 2E70 2600      	MVI	H,00H
 2E72 69        	MOV	L,C
 2E73 29        	DAD	H
 2E74 19        	DAD	D
 2E75 5E        	MOV	E,M
 2E76 23        	INX	H
 2E77 56        	MOV	D,M
 2E78 EB        	XCHG
 2E79 C9        	RET
                OPERD2:
 2E7A D1        	POP	D
 2E7B C1        	POP	B
 2E7C C5        	PUSH	B
 2E7D D5        	PUSH	D
 2E7E 11582C    	LXI	D,OPRPTR2
 2E81 2600      	MVI	H,00H
 2E83 69        	MOV	L,C
 2E84 29        	DAD	H
 2E85 19        	DAD	D
 2E86 5E        	MOV	E,M
 2E87 23        	INX	H
 2E88 56        	MOV	D,M
 2E89 EB        	XCHG
 2E8A C9        	RET
                ;----- CALL1.MAC   SMALL-C  ARITHMETIC AND LOGICAL LIBRARY
                ;	
                ;	PART 1		MULTIPLY ROUTINE
                ;
                	;
                	;MULTIPLY DE BY HL AND RETURN IN HL
                	;(SIGNED MULTIPLY)
                	;
                CCMULT:
 2E8B 44        MULT:	MOV	B,H
 2E8C 4D        	MOV	C,L
 2E8D 210000    	LXI	H,0
 2E90 79        CCMLT1:	MOV	A,C
 2E91 0F        	RRC
 2E92 D2962E    	JNC	CCMLT2
 2E95 19        	DAD	D
 2E96 AF        CCMLT2:	XRA	A
 2E97 78        	MOV	A,B
 2E98 1F        	RAR
 2E99 47        	MOV	B,A
 2E9A 79        	MOV	A,C
 2E9B 1F        	RAR
 2E9C 4F        	MOV	C,A
 2E9D B0        	ORA	B
 2E9E C8        	RZ
 2E9F AF        	XRA	A
 2EA0 7B        	MOV	A,E
 2EA1 17        	RAL
 2EA2 5F        	MOV	E,A
 2EA3 7A        	MOV	A,D
 2EA4 17        	RAL
 2EA5 57        	MOV	D,A
 2EA6 B3        	ORA	E
 2EA7 C8        	RZ
 2EA8 C3902E    	JMP	CCMLT1
                ;
                ;----- CALL2.MAC   SMALL-C  ARITHMETIC AND LOGICAL LIBRARY
                ;
                ;
                ;	PART 2			DIVIDE ROUTINE
                ;
                	;DIVIDE DE BY HL AND RETURN QUOTIENT IN HL, REMAINDER IN DE
                	;(SIGNED DIVIDE)
                	;
                CCDIV:
 2EAB 44        DIV:	MOV	B,H
 2EAC 4D        	MOV	C,L
 2EAD 7A        	MOV	A,D
 2EAE A8        	XRA	B
 2EAF F5        	PUSH	PSW
 2EB0 7A        	MOV	A,D
 2EB1 B7        	ORA	A
 2EB2 FCEC2E    	CM	CCDENEG
 2EB5 78        	MOV	A,B
 2EB6 B7        	ORA	A
 2EB7 FCF42E    	CM	CCBCNEG
 2EBA 3E10      	MVI	A,16
 2EBC F5        	PUSH	PSW
 2EBD EB        	XCHG
 2EBE 110000    	LXI	D,0
 2EC1 29        CCDIV1:	DAD	H
 2EC2 CDFC2E    	CALL	CCRDEL
 2EC5 CAD82E    	JZ	CCDIV2
 2EC8 CD042F    	CALL	CCCMPBCDE
 2ECB FAD82E    	JM	CCDIV2
 2ECE 7D        	MOV	A,L
 2ECF F601      	ORI	1
 2ED1 6F        	MOV	L,A
 2ED2 7B        	MOV	A,E
 2ED3 91        	SUB	C
 2ED4 5F        	MOV	E,A
 2ED5 7A        	MOV	A,D
 2ED6 98        	SBB	B
 2ED7 57        	MOV	D,A
 2ED8 F1        CCDIV2:	POP	PSW
 2ED9 3D        	DCR	A
 2EDA CAE12E    	JZ	CCDIV3
 2EDD F5        	PUSH	PSW
 2EDE C3C12E    	JMP	CCDIV1
 2EE1 F1        CCDIV3:	POP	PSW
 2EE2 F0        	RP
 2EE3 CDEC2E    	CALL	CCDENEG
 2EE6 EB        	XCHG
 2EE7 CDEC2E    	CALL	CCDENEG
 2EEA EB        	XCHG
 2EEB C9        	RET
                	;
                	;NEGATE THE INTEGER IN DE
                	;(INTERNAL ROUTINE)
                	;
                CCDENEG:
 2EEC 7A        	MOV	A,D
 2EED 2F        	CMA
 2EEE 57        	MOV	D,A
 2EEF 7B        	MOV	A,E
 2EF0 2F        	CMA
 2EF1 5F        	MOV	E,A
 2EF2 13        	INX	D
 2EF3 C9        	RET
                	;
                	;NEGATE THE INTEGER IN BC
                	;(INTERNAL ROUTINE)
                	;
                CCBCNEG:
 2EF4 78        	MOV	A,B
 2EF5 2F        	CMA
 2EF6 47        	MOV	B,A
 2EF7 79        	MOV	A,C
 2EF8 2F        	CMA
 2EF9 4F        	MOV	C,A
 2EFA 03        	INX	B
 2EFB C9        	RET
                	;
                	;ROTATE DE LEFT ONE BIT
                	;(INTERNAL ROUTINE)
                	;
                CCRDEL:
 2EFC 7B        	MOV	A,E
 2EFD 17        	RAL
 2EFE 5F        	MOV	E,A
 2EFF 7A        	MOV	A,D
 2F00 17        	RAL
 2F01 57        	MOV	D,A
 2F02 B3        	ORA	E
 2F03 C9        	RET
                	;
                	;COMPARE BC TO DE
                	;(INTERNAL ROUTINE)
                	;
                CCCMPBCDE:
 2F04 7B        	MOV	A,E
 2F05 91        	SUB	C
 2F06 7A        	MOV	A,D
 2F07 98        	SBB	B
 2F08 C9        	RET
                ;
                ;----- CALL3.MAC   SMALL-C  ARITHMETIC AND LOGICAL LIBRARY
                ;
                ;	PART 3		SWITCH ROUTINE
                ;
                	;
                	; EXECUTE "SWITCH" STATEMENT
                	;
                	;  HL  =  SWITCH VALUE
                	; (SP) -> SWITCH TABLE
                	;         DW ADDR1, VALUE1
                	;         DW ADDR2, VALUE2
                	;         ...
                	;         DW 0
                	;        [JMP DEFAULT]
                	;         CONTINUATION
                	;
                CCSWITCH:
 2F09 EB        	XCHG	;DE =  SWITCH VALUE
 2F0A E1        	POP	H	;HL -> SWITCH TABLE
 2F0B 4E        SWLOOP:	MOV	C,M
 2F0C 23        	INX	H
 2F0D 46        	MOV	B,M	;BC -> CASE ADDR, ELSE 0
 2F0E 23        	INX	H
 2F0F 78        	MOV	A,B
 2F10 B1        	ORA	C
 2F11 CA222F    	JZ	SWEND	;DEFAULT OR CONTINUATION CODE
 2F14 7E        	MOV	A,M
 2F15 23        	INX	H
 2F16 BB        	CMP	E
 2F17 7E        	MOV	A,M
 2F18 23        	INX	H
 2F19 C20B2F    	JNZ	SWLOOP
 2F1C BA        	CMP	D
 2F1D C20B2F    	JNZ	SWLOOP
 2F20 60        	MOV	H,B	;CASE MATCHED
 2F21 69        	MOV	L,C
 2F22 E9        SWEND:	PCHL
                ;
                ;----- CALL4.MAC   SMALL-C  ARITHMETIC AND LOGICAL LIBRARY
                ;
                ;
                ;		PART 4		ARITHMETIC SHIFT ROUTINES
                ;
                	;
                	;SHIFT DE ARITHMETICALLY RIGHT BY HL AND RETURN IN HL
                	;
                CCASR:
 2F23 EB        	XCHG
 2F24 1D        	DCR	E
 2F25 F8        	RM
 2F26 7C        	MOV	A,H
 2F27 17        	RAL
 2F28 7C        	MOV	A,H
 2F29 1F        	RAR
 2F2A 67        	MOV	H,A
 2F2B 7D        	MOV	A,L
 2F2C 1F        	RAR
 2F2D 6F        	MOV	L,A
 2F2E C3242F    	JMP	CCASR+1
                	;
                	;SHIFT DE ARITHMETICALLY LEFT BY HL AND RETURN IN HL
                	;
                CCASL:
 2F31 EB        	XCHG
 2F32 1D        	DCR	E
 2F33 F8        	RM
 2F34 29        	DAD	H
 2F35 C3322F    	JMP	CCASL+1
                	;
                ;
                ;----- CALL5.MAC   SMALL-C  ARITHMETIC AND LOGICAL LIBRARY
                ;
                ;
                ;	PART 5		MAIN ROUTINE - MULTIPLY, DIVIDE, SWITCH AND
                ;				SHIFT  ROUTINES IN SEPERATE MODULES
                ;
                CCDCAL:
 2F38 E9        	PCHL
                CCDDGC:
 2F39 19        	DAD	D
 2F3A C3402F    	JMP	CCGCHAR
                	;
                CCDSGC:
 2F3D 23        	INX	H
 2F3E 23        	INX	H
 2F3F 39        	DAD	SP
                	;
                	;FETCH A SINGLE BYTE FROM THE ADDRESS IN HL AND
                	;SIGN EXTEND INTO HL
                	;
                CCGCHAR:
 2F40 7E        	MOV	A,M
                	;
                	;PUT THE ACCUM INTO HL AND SIGN EXTEND THROUGH H.
                	;
                CCARGC:
                CCSXT:
 2F41 6F        	MOV	L,A
 2F42 07        	RLC
 2F43 9F        	SBB	A
 2F44 67        	MOV	H,A
 2F45 C9        	RET
                	;
                CCDDGI:
 2F46 19        	DAD	D
 2F47 C34D2F    	JMP	CCGINT
                	;
                CCDSGI:
 2F4A 23        	INX	H
 2F4B 23        	INX	H
 2F4C 39        	DAD	SP
                	;
                	;FETCH A FULL 16-BIT INTEGER FROM THE ADDRESS IN HL
                	;INTO HL
                	;
                CCGINT:
 2F4D 7E        	MOV	A,M
 2F4E 23        	INX	H
 2F4F 66        	MOV	H,M
 2F50 6F        	MOV	L,A
 2F51 C9        	RET
                	;
                CCDECC:
 2F52 23        	INX	H
 2F53 23        	INX	H
 2F54 39         	DAD	SP
 2F55 54        	MOV	D,H
 2F56 5D        	MOV	E,L
 2F57 CD402F    	CALL	CCGCHAR
 2F5A 2B        	DCX	H
 2F5B 7D        	MOV	A,L
 2F5C 12        	STAX	D
 2F5D C9        	RET
                	;
                CCINCC:
 2F5E 23        	INX	H
 2F5F 23        	INX	H
 2F60 39        	DAD	SP
 2F61 54        	MOV	D,H
 2F62 5D        	MOV	E,L
 2F63 CD402F    	CALL	CCGCHAR
 2F66 23        	INX	H
 2F67 7D        	MOV	A,L
 2F68 12        	STAX	D
 2F69 C9        	RET
                	;
                	;
                ;
                CCDDPC:
                CDPDPC:
                	;
 2F6A 19        	DAD	D
                CCPDPC:
 2F6B C1        	POP	B	;RET ADDR
 2F6C D1        	POP	D
 2F6D C5        	PUSH	B
                	;
                	;STORE A SINGLE BYTE FROM HL AT THE ADDRESS IN DE
                	;
                CCPCHAR:
 2F6E 7D        PCHAR:	MOV	A,L
 2F6F 12        	STAX	D
 2F70 C9        	RET
                	;
                CCDECI:
 2F71 23        	INX	H
 2F72 23        	INX	H
 2F73 39        	DAD	SP
 2F74 54        	MOV	D,H
 2F75 5D        	MOV	E,L
 2F76 CD4D2F    	CALL	CCGINT
 2F79 2B        	DCX	H
 2F7A C38D2F    	JMP	CCPINT
                	;
                CCINCI:
 2F7D 23        	INX	H
 2F7E 23        	INX	H
 2F7F 39        	DAD	SP
 2F80 54        	MOV	D,H
 2F81 5D        	MOV	E,L
 2F82 CD4D2F    	CALL	CCGINT
 2F85 23        	INX	H
 2F86 C38D2F     	JMP	CCPINT
                	;
                	;
                ;
                CCDDPI:
                CDPDPI:
                	;
 2F89 19        	DAD	D
                CCPDPI:
 2F8A C1        	POP	B	;RET ADDR
 2F8B D1        	POP	D
 2F8C C5        	PUSH	B
                	;
                	;STORE A 16-BIT INTEGER IN HL AT THE ADDRESS IN DE
                	;
                CCPINT:
 2F8D 7D        PINT:	MOV	A,L
 2F8E 12        	STAX	D
 2F8F 13        	INX	D
 2F90 7C        	MOV	A,H
 2F91 12        	STAX	D
 2F92 C9        	RET
                	;
                	;INCLUSIVE "OR" HL AND DE INTO HL
                	;
                CCOR:
 2F93 7D        	MOV	A,L
 2F94 B3        	ORA	E
 2F95 6F        	MOV	L,A
 2F96 7C        	MOV	A,H
 2F97 B2        	ORA	D
 2F98 67        	MOV	H,A
 2F99 C9        	RET
                	;
                	;EXCLUSIVE "OR" HL AND DE INTO HL
                	;
                CCXOR:
 2F9A 7D        	MOV	A,L
 2F9B AB        	XRA	E
 2F9C 6F        	MOV	L,A
 2F9D 7C        	MOV	A,H
 2F9E AA        	XRA	D
 2F9F 67        	MOV	H,A
 2FA0 C9        	RET
                	;
                	;"AND" HL AND DE INTO HL
                	;
                CCAND:
 2FA1 7D        	MOV	A,L
 2FA2 A3        	ANA	E
 2FA3 6F        	MOV	L,A
 2FA4 7C        	MOV	A,H
 2FA5 A2        	ANA	D
 2FA6 67        	MOV	H,A
 2FA7 C9        	RET
                	;
                	;IN ALL THE FOLLOWING COMPARE ROUTINES, HL IS SET TO 1 IF THE
                	;CONDITION IS TRUE, OTHERWISE IT IS SET TO 0 (ZERO).
                	;
                	;TEST IF HL = DE
                	;
                CCEQ:
 2FA8 CDCE2F    	CALL	CCCMP
 2FAB C8        	RZ
 2FAC 2B        	DCX	H
 2FAD C9        	RET
                	;
                	;TEST IF DE <> HL
                	;
                CCNE:
 2FAE CDCE2F    	CALL	CCCMP
 2FB1 C0        	RNZ
 2FB2 2B        	DCX	H
 2FB3 C9        	RET
                	;
                	;TEST IF DE > HL (SIGNED)
                	;
                CCGT:
 2FB4 EB        	XCHG
 2FB5 CDCE2F    	CALL	CCCMP
 2FB8 D8        	RC
 2FB9 2B        	DCX	H
 2FBA C9        	RET
                	;
                	;TEST IF DE <= HL (SIGNED)
                	;
                CCLE:
 2FBB CDCE2F    	CALL	CCCMP
 2FBE C8        	RZ
 2FBF D8        	RC
 2FC0 2B        	DCX	H
 2FC1 C9        	RET
                	;
                	;TEST IF DE >= HL (SIGNED)
                	;
                CCGE:
 2FC2 CDCE2F    	CALL	CCCMP
 2FC5 D0        	RNC
 2FC6 2B        	DCX	H
 2FC7 C9        	RET
                	;
                	;TEST IF DE < HL (SIGNED)
                	;
                CCLT:
 2FC8 CDCE2F    	CALL	CCCMP
 2FCB D8        	RC
 2FCC 2B        	DCX	H
 2FCD C9        	RET
                	;
                	;COMMON ROUTINE TO PERFORM A SIGNED COMPARE
                	; OF DE AND HL
                	;THIS ROUTINE PERFORMS DE - HL AND SETS THE CONDITIONS: 
                	; CARRY REFLECTS SIGN OF DIFFERENCE (SET MEANS DE < HL)
                	; ZERO/NON-ZERO SET ACCORDING TO EQUALITY.
                	;
                CCCMP:
 2FCE 7C        	MOV	A,H	;INVERT SIGN OF HL
 2FCF EE80      	XRI	80H
 2FD1 67        	MOV	H,A
 2FD2 7A        	MOV	A,D	;INVERT SIGN OF DE
 2FD3 EE80      	XRI	80H
 2FD5 BC        	CMP	H	;COMPARE MSBS
 2FD6 C2DB2F    	JNZ	CCCMP1	;DONE IF NEQ
 2FD9 7B        	MOV	A,E	;COMPARE LSBS
 2FDA BD        	CMP	L
 2FDB 210100    CCCMP1:	LXI	H,1	;PRESET TRUE COND
 2FDE C9        	RET
                	;
                	;TEST IF DE >= HL (UNSIGNED)
                	;
                CCUGE:
 2FDF CDF92F    	CALL	CCUCMP
 2FE2 D0        	RNC
 2FE3 2B        	DCX	H
 2FE4 C9        	RET
                	;
                	;TEST IF DE < HL (UNSIGNED)
                	;
                CCULT:
 2FE5 CDF92F    	CALL	CCUCMP
 2FE8 D8        	RC
 2FE9 2B        	DCX	H
 2FEA C9        	RET
                	;
                	;TEST IF DE > HL (UNSIGNED)
                	;
                CCUGT:
 2FEB EB        	XCHG
 2FEC CDF92F    	CALL	CCUCMP
 2FEF D8        	RC
 2FF0 2B        	DCX	H
 2FF1 C9        	RET
                	;
                	;TEST IF DE <= HL (UNSIGNED)
                	;
                CCULE:
 2FF2 CDF92F    	CALL	CCUCMP
 2FF5 C8        	RZ
 2FF6 D8        	RC
 2FF7 2B        	DCX	H
 2FF8 C9        	RET
                	;
                	;COMMON ROUTINE TO PERFORM UNSIGNED COMPARE
                	;CARRY SET IF DE < HL
                	;ZERO/NONZERO SET ACCORDINGLY
                	;
                CCUCMP:
 2FF9 7A        	MOV	A,D
 2FFA BC        	CMP	H
 2FFB C20030    	JNZ	CCUCP1
 2FFE 7B        	MOV	A,E
 2FFF BD        	CMP	L
 3000 210100    CCUCP1:	LXI	H,1
 3003 C9        	RET
                	;
                	;SUBTRACT HL FROM DE AND RETURN IN HL
                	;
                CCSUB:
 3004 7B        	MOV	A,E
 3005 95        	SUB	L
 3006 6F        	MOV	L,A
 3007 7A        	MOV	A,D
 3008 9C        	SBB	H
 3009 67        	MOV	H,A
 300A C9        	RET
                	;
                	;FORM THE TWO'S COMPLEMENT OF HL
                	;
                CCNEG:
 300B CD1030    	CALL	CCCOM
 300E 23        	INX	H
 300F C9        	RET
                	;
                	;FORM THE ONE'S COMPLEMENT OF HL
                	;
                CCCOM:
 3010 7C        	MOV	A,H
 3011 2F        	CMA
 3012 67        	MOV	H,A
 3013 7D        	MOV	A,L
 3014 2F        	CMA
 3015 6F        	MOV	L,A
 3016 C9        	RET
                CCLNEG:
 3017 7C        	MOV	A,H
 3018 B5        	ORA	L
 3019 C21F30    	JNZ	$+6
 301C 2E01      	MVI	L,1
 301E C9        	RET
 301F 210000    	LXI	H,0
 3022 C9        	RET
                ;
 5000           	ORG	LTOP
                ;
 5000           OBTM:	DS	0002H
 5002           CLABL:	DS	0002H
 5004           RSTCK:	DS	0002H
 5006           NCNTR:	DS	0002H
 5008           FCNTR:	DS	0002H
 500A           FSTPV:	DS	0002H
 500C           FTOV:	DS	0002H
 500E           FLABL:	DS	0002H
 5010           FOBJ:	DS	0002H
 5012           RWRK:	DS	0002H
 5014 =         OTOP	EQU	$
                ;
                ;	SYSTEM PARAMETERS
 7E00           	ORG	STACK
 7E00           RBFCNT	DS	01H
 7E01           RBFRDP	DS	01H
 7E02           RBFWTP	DS	01H
 7E03           XFLAGS	DS	01H
 7E04           RECBUF	DS	100H
                ;
 7F04           	END
